                              1 ;--------------------------------------------------------
                              2 ; File Created by SDCC : free open source ANSI-C Compiler
                              3 ; Version 3.2.0 #8008 (Jul  6 2012) (MINGW32)
                              4 ; This file was generated Sun Sep 30 07:44:15 2012
                              5 ;--------------------------------------------------------
                              6 	.module dhry21a
                              7 	.optsdcc -mmcs51 --model-large
                              8 	
                              9 ;--------------------------------------------------------
                             10 ; Public variables in this module
                             11 ;--------------------------------------------------------
                             12 	.globl _main
                             13 	.globl _soc_get_msecs
                             14 	.globl _soc_init
                             15 	.globl _strcpy
                             16 	.globl _memcpy
                             17 	.globl _exit
                             18 	.globl _fopen
                             19 	.globl _emalloc
                             20 	.globl _Func_2
                             21 	.globl _Func_1
                             22 	.globl _Proc_8
                             23 	.globl _Proc_7
                             24 	.globl _Proc_6
                             25 	.globl _printf
                             26 	.globl _P3_7
                             27 	.globl _P3_6
                             28 	.globl _P3_5
                             29 	.globl _P3_4
                             30 	.globl _P3_3
                             31 	.globl _P3_2
                             32 	.globl _P3_1
                             33 	.globl _P3_0
                             34 	.globl _P2_7
                             35 	.globl _P2_6
                             36 	.globl _P2_5
                             37 	.globl _P2_4
                             38 	.globl _P2_3
                             39 	.globl _P2_2
                             40 	.globl _P2_1
                             41 	.globl _P2_0
                             42 	.globl _P1_7
                             43 	.globl _P1_6
                             44 	.globl _P1_5
                             45 	.globl _P1_4
                             46 	.globl _P1_3
                             47 	.globl _P1_2
                             48 	.globl _P1_1
                             49 	.globl _P1_0
                             50 	.globl _P0_7
                             51 	.globl _P0_6
                             52 	.globl _P0_5
                             53 	.globl _P0_4
                             54 	.globl _P0_3
                             55 	.globl _P0_2
                             56 	.globl _P0_1
                             57 	.globl _P0_0
                             58 	.globl _EIRQ7
                             59 	.globl _EIRQ6
                             60 	.globl _EIRQ5
                             61 	.globl _EIRQ4
                             62 	.globl _EIRQ3
                             63 	.globl _EIRQ2
                             64 	.globl _EIRQ1
                             65 	.globl _EIRQ0
                             66 	.globl _T0CEN
                             67 	.globl _T0ARL
                             68 	.globl _T0IRQ
                             69 	.globl _RXRDY
                             70 	.globl _TXRDY
                             71 	.globl _RXIRQ
                             72 	.globl _TXIRQ
                             73 	.globl _EEX
                             74 	.globl _ET0
                             75 	.globl _ES
                             76 	.globl _EA
                             77 	.globl _P3
                             78 	.globl _P2
                             79 	.globl _P1
                             80 	.globl _P0
                             81 	.globl _EXTINT
                             82 	.globl _T0CH
                             83 	.globl _T0CL
                             84 	.globl _T0H
                             85 	.globl _T0L
                             86 	.globl _TCON
                             87 	.globl _SBPH
                             88 	.globl _SBPL
                             89 	.globl _SBUF
                             90 	.globl _SCON
                             91 	.globl _IE
                             92 	.globl _Reg_Define
                             93 	.globl _Vax_Mips
                             94 	.globl _Dhrystones_Per_Second
                             95 	.globl _Microseconds
                             96 	.globl _User_Time
                             97 	.globl _End_Time
                             98 	.globl _Begin_Time
                             99 	.globl _dps
                            100 	.globl _msecs_end
                            101 	.globl _msecs_start
                            102 	.globl _Arr_2_Glob
                            103 	.globl _Arr_1_Glob
                            104 	.globl _Ch_2_Glob
                            105 	.globl _Ch_1_Glob
                            106 	.globl _Bool_Glob
                            107 	.globl _Int_Glob
                            108 	.globl _Next_Ptr_Glob
                            109 	.globl _Ptr_Glob
                            110 	.globl _Proc_1
                            111 	.globl _Proc_2
                            112 	.globl _Proc_3
                            113 	.globl _Proc_4
                            114 	.globl _Proc_5
                            115 ;--------------------------------------------------------
                            116 ; special function registers
                            117 ;--------------------------------------------------------
                            118 	.area RSEG    (ABS,DATA)
   0000                     119 	.org 0x0000
                    00A8    120 _IE	=	0x00a8
                    0098    121 _SCON	=	0x0098
                    0099    122 _SBUF	=	0x0099
                    009A    123 _SBPL	=	0x009a
                    009B    124 _SBPH	=	0x009b
                    0088    125 _TCON	=	0x0088
                    008C    126 _T0L	=	0x008c
                    008D    127 _T0H	=	0x008d
                    008E    128 _T0CL	=	0x008e
                    008F    129 _T0CH	=	0x008f
                    00C0    130 _EXTINT	=	0x00c0
                    0080    131 _P0	=	0x0080
                    0090    132 _P1	=	0x0090
                    00A0    133 _P2	=	0x00a0
                    00B0    134 _P3	=	0x00b0
                            135 ;--------------------------------------------------------
                            136 ; special function bits
                            137 ;--------------------------------------------------------
                            138 	.area RSEG    (ABS,DATA)
   0000                     139 	.org 0x0000
                    00AF    140 _EA	=	0x00af
                    00AC    141 _ES	=	0x00ac
                    00A9    142 _ET0	=	0x00a9
                    00A8    143 _EEX	=	0x00a8
                    009C    144 _TXIRQ	=	0x009c
                    009D    145 _RXIRQ	=	0x009d
                    009C    146 _TXRDY	=	0x009c
                    009D    147 _RXRDY	=	0x009d
                    0088    148 _T0IRQ	=	0x0088
                    008C    149 _T0ARL	=	0x008c
                    008D    150 _T0CEN	=	0x008d
                    00C0    151 _EIRQ0	=	0x00c0
                    00C1    152 _EIRQ1	=	0x00c1
                    00C2    153 _EIRQ2	=	0x00c2
                    00C3    154 _EIRQ3	=	0x00c3
                    00C4    155 _EIRQ4	=	0x00c4
                    00C5    156 _EIRQ5	=	0x00c5
                    00C6    157 _EIRQ6	=	0x00c6
                    00C7    158 _EIRQ7	=	0x00c7
                    0080    159 _P0_0	=	0x0080
                    0081    160 _P0_1	=	0x0081
                    0082    161 _P0_2	=	0x0082
                    0083    162 _P0_3	=	0x0083
                    0084    163 _P0_4	=	0x0084
                    0085    164 _P0_5	=	0x0085
                    0086    165 _P0_6	=	0x0086
                    0087    166 _P0_7	=	0x0087
                    0090    167 _P1_0	=	0x0090
                    0091    168 _P1_1	=	0x0091
                    0092    169 _P1_2	=	0x0092
                    0093    170 _P1_3	=	0x0093
                    0094    171 _P1_4	=	0x0094
                    0095    172 _P1_5	=	0x0095
                    0096    173 _P1_6	=	0x0096
                    0097    174 _P1_7	=	0x0097
                    00A0    175 _P2_0	=	0x00a0
                    00A1    176 _P2_1	=	0x00a1
                    00A2    177 _P2_2	=	0x00a2
                    00A3    178 _P2_3	=	0x00a3
                    00A4    179 _P2_4	=	0x00a4
                    00A5    180 _P2_5	=	0x00a5
                    00A6    181 _P2_6	=	0x00a6
                    00A7    182 _P2_7	=	0x00a7
                    00B0    183 _P3_0	=	0x00b0
                    00B1    184 _P3_1	=	0x00b1
                    00B2    185 _P3_2	=	0x00b2
                    00B3    186 _P3_3	=	0x00b3
                    00B4    187 _P3_4	=	0x00b4
                    00B5    188 _P3_5	=	0x00b5
                    00B6    189 _P3_6	=	0x00b6
                    00B7    190 _P3_7	=	0x00b7
                            191 ;--------------------------------------------------------
                            192 ; overlayable register banks
                            193 ;--------------------------------------------------------
                            194 	.area REG_BANK_0	(REL,OVR,DATA)
   0000                     195 	.ds 8
                            196 ;--------------------------------------------------------
                            197 ; internal ram data
                            198 ;--------------------------------------------------------
                            199 	.area DSEG    (DATA)
   0000                     200 _main_sloc0_1_0:
   0000                     201 	.ds 4
   0004                     202 _Proc_1_sloc0_1_0:
   0004                     203 	.ds 3
   0007                     204 _Proc_1_sloc1_1_0:
   0007                     205 	.ds 3
   000A                     206 _Proc_1_sloc2_1_0:
   000A                     207 	.ds 3
                            208 ;--------------------------------------------------------
                            209 ; overlayable items in internal ram 
                            210 ;--------------------------------------------------------
                            211 ;--------------------------------------------------------
                            212 ; Stack segment in internal ram 
                            213 ;--------------------------------------------------------
                            214 	.area	SSEG	(DATA)
   0000                     215 __start__stack:
   0000                     216 	.ds	1
                            217 
                            218 ;--------------------------------------------------------
                            219 ; indirectly addressable internal ram data
                            220 ;--------------------------------------------------------
                            221 	.area ISEG    (DATA)
                            222 ;--------------------------------------------------------
                            223 ; absolute internal ram data
                            224 ;--------------------------------------------------------
                            225 	.area IABS    (ABS,DATA)
                            226 	.area IABS    (ABS,DATA)
                            227 ;--------------------------------------------------------
                            228 ; bit data
                            229 ;--------------------------------------------------------
                            230 	.area BSEG    (BIT)
                            231 ;--------------------------------------------------------
                            232 ; paged external ram data
                            233 ;--------------------------------------------------------
                            234 	.area PSEG    (PAG,XDATA)
                            235 ;--------------------------------------------------------
                            236 ; external ram data
                            237 ;--------------------------------------------------------
                            238 	.area XSEG    (XDATA)
   0000                     239 _Ptr_Glob::
   0000                     240 	.ds 3
   0003                     241 _Next_Ptr_Glob::
   0003                     242 	.ds 3
   0006                     243 _Int_Glob::
   0006                     244 	.ds 2
   0008                     245 _Bool_Glob::
   0008                     246 	.ds 2
   000A                     247 _Ch_1_Glob::
   000A                     248 	.ds 1
   000B                     249 _Ch_2_Glob::
   000B                     250 	.ds 1
   000C                     251 _Arr_1_Glob::
   000C                     252 	.ds 50
   003E                     253 _Arr_2_Glob::
   003E                     254 	.ds 1250
   0520                     255 _msecs_start::
   0520                     256 	.ds 4
   0524                     257 _msecs_end::
   0524                     258 	.ds 4
   0528                     259 _dps::
   0528                     260 	.ds 4
   052C                     261 _Begin_Time::
   052C                     262 	.ds 4
   0530                     263 _End_Time::
   0530                     264 	.ds 4
   0534                     265 _User_Time::
   0534                     266 	.ds 4
   0538                     267 _Microseconds::
   0538                     268 	.ds 4
   053C                     269 _Dhrystones_Per_Second::
   053C                     270 	.ds 4
   0540                     271 _Vax_Mips::
   0540                     272 	.ds 4
   0544                     273 _main_Int_1_Loc_1_73:
   0544                     274 	.ds 2
   0546                     275 _main_Int_2_Loc_1_73:
   0546                     276 	.ds 2
   0548                     277 _main_Int_3_Loc_1_73:
   0548                     278 	.ds 2
   054A                     279 _main_Enum_Loc_1_73:
   054A                     280 	.ds 1
   054B                     281 _main_Str_1_Loc_1_73:
   054B                     282 	.ds 31
   056A                     283 _main_Str_2_Loc_1_73:
   056A                     284 	.ds 31
   0589                     285 _Proc_1_Ptr_Val_Par_1_80:
   0589                     286 	.ds 3
   058C                     287 _Proc_2_Int_Par_Ref_1_83:
   058C                     288 	.ds 3
   058F                     289 _Proc_2_Enum_Loc_1_84:
   058F                     290 	.ds 1
   0590                     291 _Proc_3_Ptr_Ref_Par_1_86:
   0590                     292 	.ds 3
                            293 ;--------------------------------------------------------
                            294 ; absolute external ram data
                            295 ;--------------------------------------------------------
                            296 	.area XABS    (ABS,XDATA)
                            297 ;--------------------------------------------------------
                            298 ; external initialized ram data
                            299 ;--------------------------------------------------------
                            300 	.area XISEG   (XDATA)
   0000                     301 _Reg_Define::
   0000                     302 	.ds 26
                            303 	.area HOME    (CODE)
                            304 	.area GSINIT0 (CODE)
                            305 	.area GSINIT1 (CODE)
                            306 	.area GSINIT2 (CODE)
                            307 	.area GSINIT3 (CODE)
                            308 	.area GSINIT4 (CODE)
                            309 	.area GSINIT5 (CODE)
                            310 	.area GSINIT  (CODE)
                            311 	.area GSFINAL (CODE)
                            312 	.area CSEG    (CODE)
                            313 ;--------------------------------------------------------
                            314 ; interrupt vector 
                            315 ;--------------------------------------------------------
                            316 	.area HOME    (CODE)
   0000                     317 __interrupt_vect:
   0000 02s00r00            318 	ljmp	__sdcc_gsinit_startup
   0003 32                  319 	reti
   0004                     320 	.ds	7
   000B 02s00r00            321 	ljmp	_timer0_isr
                            322 ;--------------------------------------------------------
                            323 ; global & static initialisations
                            324 ;--------------------------------------------------------
                            325 	.area HOME    (CODE)
                            326 	.area GSINIT  (CODE)
                            327 	.area GSFINAL (CODE)
                            328 	.area GSINIT  (CODE)
                            329 	.globl __sdcc_gsinit_startup
                            330 	.globl __sdcc_program_startup
                            331 	.globl __start__stack
                            332 	.globl __mcs51_genXINIT
                            333 	.globl __mcs51_genXRAMCLEAR
                            334 	.globl __mcs51_genRAMCLEAR
                            335 	.area GSFINAL (CODE)
   0000 02s00r0E            336 	ljmp	__sdcc_program_startup
                            337 ;--------------------------------------------------------
                            338 ; Home
                            339 ;--------------------------------------------------------
                            340 	.area HOME    (CODE)
                            341 	.area HOME    (CODE)
   000E                     342 __sdcc_program_startup:
   000E 12s00r00            343 	lcall	_main
                            344 ;	return from main will lock up
   0011 80 FE               345 	sjmp .
                            346 ;--------------------------------------------------------
                            347 ; code
                            348 ;--------------------------------------------------------
                            349 	.area CSEG    (CODE)
                            350 ;------------------------------------------------------------
                            351 ;Allocation info for local variables in function 'main'
                            352 ;------------------------------------------------------------
                            353 ;sloc0                     Allocated with name '_main_sloc0_1_0'
                            354 ;Int_1_Loc                 Allocated with name '_main_Int_1_Loc_1_73'
                            355 ;Int_2_Loc                 Allocated with name '_main_Int_2_Loc_1_73'
                            356 ;Int_3_Loc                 Allocated with name '_main_Int_3_Loc_1_73'
                            357 ;Ch_Index                  Allocated with name '_main_Ch_Index_1_73'
                            358 ;Enum_Loc                  Allocated with name '_main_Enum_Loc_1_73'
                            359 ;Str_1_Loc                 Allocated with name '_main_Str_1_Loc_1_73'
                            360 ;Str_2_Loc                 Allocated with name '_main_Str_2_Loc_1_73'
                            361 ;Run_Index                 Allocated with name '_main_Run_Index_1_73'
                            362 ;Number_Of_Runs            Allocated with name '_main_Number_Of_Runs_1_73'
                            363 ;Ap                        Allocated with name '_main_Ap_1_73'
                            364 ;------------------------------------------------------------
                            365 ;	src/dhry21a.c:80: int main( void )
                            366 ;	-----------------------------------------
                            367 ;	 function main
                            368 ;	-----------------------------------------
   0000                     369 _main:
                    0007    370 	ar7 = 0x07
                    0006    371 	ar6 = 0x06
                    0005    372 	ar5 = 0x05
                    0004    373 	ar4 = 0x04
                    0003    374 	ar3 = 0x03
                    0002    375 	ar2 = 0x02
                    0001    376 	ar1 = 0x01
                    0000    377 	ar0 = 0x00
                            378 ;	src/dhry21a.c:103: soc_init();
   0000 12s00r00            379 	lcall	_soc_init
                            380 ;	src/dhry21a.c:107: if ((Ap = fopen("dhry.res","a+")) == NULL)
   0003 90s00r00            381 	mov	dptr,#_fopen_PARM_2
   0006 74r09               382 	mov	a,#__str_1
   0008 F0                  383 	movx	@dptr,a
   0009 A3                  384 	inc	dptr
   000A 74s00               385 	mov	a,#(__str_1 >> 8)
   000C F0                  386 	movx	@dptr,a
   000D A3                  387 	inc	dptr
   000E 74 80               388 	mov	a,#0x80
   0010 F0                  389 	movx	@dptr,a
   0011 90s00r00            390 	mov	dptr,#__str_0
   0014 75 F0 80            391 	mov	b,#0x80
   0017 12s00r00            392 	lcall	_fopen
   001A AD 82               393 	mov	r5,dpl
   001C AE 83               394 	mov	r6,dph
   001E AF F0               395 	mov	r7,b
   0020 ED                  396 	mov	a,r5
   0021 4E                  397 	orl	a,r6
   0022 70 1B               398 	jnz	00102$
                            399 ;	src/dhry21a.c:109: printf("Can not open dhry.res\n\n");
   0024 74r0C               400 	mov	a,#__str_2
   0026 C0 E0               401 	push	acc
   0028 74s00               402 	mov	a,#(__str_2 >> 8)
   002A C0 E0               403 	push	acc
   002C 74 80               404 	mov	a,#0x80
   002E C0 E0               405 	push	acc
   0030 12s00r00            406 	lcall	_printf
   0033 15 81               407 	dec	sp
   0035 15 81               408 	dec	sp
   0037 15 81               409 	dec	sp
                            410 ;	src/dhry21a.c:110: exit(1);
   0039 90 00 01            411 	mov	dptr,#0x0001
   003C 12s00r00            412 	lcall	_exit
   003F                     413 00102$:
                            414 ;	src/dhry21a.c:113: Next_Ptr_Glob = (Rec_Pointer)emalloc (sizeof (Rec_Type));
   003F 90 00 26            415 	mov	dptr,#0x0026
   0042 12s00r00            416 	lcall	_emalloc
   0045 AD 82               417 	mov	r5,dpl
   0047 AE 83               418 	mov	r6,dph
   0049 AF F0               419 	mov	r7,b
   004B 90s00r03            420 	mov	dptr,#_Next_Ptr_Glob
   004E ED                  421 	mov	a,r5
   004F F0                  422 	movx	@dptr,a
   0050 A3                  423 	inc	dptr
   0051 EE                  424 	mov	a,r6
   0052 F0                  425 	movx	@dptr,a
   0053 A3                  426 	inc	dptr
   0054 EF                  427 	mov	a,r7
   0055 F0                  428 	movx	@dptr,a
                            429 ;	src/dhry21a.c:114: Ptr_Glob = (Rec_Pointer)emalloc (sizeof (Rec_Type));
   0056 90 00 26            430 	mov	dptr,#0x0026
   0059 12s00r00            431 	lcall	_emalloc
   005C AD 82               432 	mov	r5,dpl
   005E AE 83               433 	mov	r6,dph
   0060 AF F0               434 	mov	r7,b
   0062 90s00r00            435 	mov	dptr,#_Ptr_Glob
   0065 ED                  436 	mov	a,r5
   0066 F0                  437 	movx	@dptr,a
   0067 A3                  438 	inc	dptr
   0068 EE                  439 	mov	a,r6
   0069 F0                  440 	movx	@dptr,a
   006A A3                  441 	inc	dptr
   006B EF                  442 	mov	a,r7
   006C F0                  443 	movx	@dptr,a
                            444 ;	src/dhry21a.c:116: Ptr_Glob->Ptr_Comp                    = Next_Ptr_Glob;
   006D 90s00r03            445 	mov	dptr,#_Next_Ptr_Glob
   0070 E0                  446 	movx	a,@dptr
   0071 FA                  447 	mov	r2,a
   0072 A3                  448 	inc	dptr
   0073 E0                  449 	movx	a,@dptr
   0074 FB                  450 	mov	r3,a
   0075 A3                  451 	inc	dptr
   0076 E0                  452 	movx	a,@dptr
   0077 FC                  453 	mov	r4,a
   0078 8D 82               454 	mov	dpl,r5
   007A 8E 83               455 	mov	dph,r6
   007C 8F F0               456 	mov	b,r7
   007E EA                  457 	mov	a,r2
   007F 12s00r00            458 	lcall	__gptrput
   0082 A3                  459 	inc	dptr
   0083 EB                  460 	mov	a,r3
   0084 12s00r00            461 	lcall	__gptrput
   0087 A3                  462 	inc	dptr
   0088 EC                  463 	mov	a,r4
   0089 12s00r00            464 	lcall	__gptrput
                            465 ;	src/dhry21a.c:117: Ptr_Glob->Discr                       = Ident_1;
   008C 74 03               466 	mov	a,#0x03
   008E 2D                  467 	add	a,r5
   008F FA                  468 	mov	r2,a
   0090 E4                  469 	clr	a
   0091 3E                  470 	addc	a,r6
   0092 FB                  471 	mov	r3,a
   0093 8F 04               472 	mov	ar4,r7
   0095 8A 82               473 	mov	dpl,r2
   0097 8B 83               474 	mov	dph,r3
   0099 8C F0               475 	mov	b,r4
   009B E4                  476 	clr	a
   009C 12s00r00            477 	lcall	__gptrput
                            478 ;	src/dhry21a.c:118: Ptr_Glob->variant.var_1.Enum_Comp     = Ident_3;
   009F 74 04               479 	mov	a,#0x04
   00A1 2D                  480 	add	a,r5
   00A2 FA                  481 	mov	r2,a
   00A3 E4                  482 	clr	a
   00A4 3E                  483 	addc	a,r6
   00A5 FB                  484 	mov	r3,a
   00A6 8F 04               485 	mov	ar4,r7
   00A8 8A 82               486 	mov	dpl,r2
   00AA 8B 83               487 	mov	dph,r3
   00AC 8C F0               488 	mov	b,r4
   00AE 74 02               489 	mov	a,#0x02
   00B0 12s00r00            490 	lcall	__gptrput
                            491 ;	src/dhry21a.c:119: Ptr_Glob->variant.var_1.Int_Comp      = 40;
   00B3 74 05               492 	mov	a,#0x05
   00B5 2D                  493 	add	a,r5
   00B6 FA                  494 	mov	r2,a
   00B7 E4                  495 	clr	a
   00B8 3E                  496 	addc	a,r6
   00B9 FB                  497 	mov	r3,a
   00BA 8F 04               498 	mov	ar4,r7
   00BC 8A 82               499 	mov	dpl,r2
   00BE 8B 83               500 	mov	dph,r3
   00C0 8C F0               501 	mov	b,r4
   00C2 74 28               502 	mov	a,#0x28
   00C4 12s00r00            503 	lcall	__gptrput
   00C7 A3                  504 	inc	dptr
   00C8 E4                  505 	clr	a
   00C9 12s00r00            506 	lcall	__gptrput
                            507 ;	src/dhry21a.c:120: strcpy (Ptr_Glob->variant.var_1.Str_Comp, 
   00CC 74 07               508 	mov	a,#0x07
   00CE 2D                  509 	add	a,r5
   00CF FD                  510 	mov	r5,a
   00D0 E4                  511 	clr	a
   00D1 3E                  512 	addc	a,r6
   00D2 FE                  513 	mov	r6,a
                            514 ;	src/dhry21a.c:121: "DHRYSTONE PROGRAM, SOME STRING");
   00D3 90s00r00            515 	mov	dptr,#_strcpy_PARM_2
   00D6 74r24               516 	mov	a,#__str_3
   00D8 F0                  517 	movx	@dptr,a
   00D9 A3                  518 	inc	dptr
   00DA 74s00               519 	mov	a,#(__str_3 >> 8)
   00DC F0                  520 	movx	@dptr,a
   00DD A3                  521 	inc	dptr
   00DE 74 80               522 	mov	a,#0x80
   00E0 F0                  523 	movx	@dptr,a
   00E1 8D 82               524 	mov	dpl,r5
   00E3 8E 83               525 	mov	dph,r6
   00E5 8F F0               526 	mov	b,r7
   00E7 12s00r00            527 	lcall	_strcpy
                            528 ;	src/dhry21a.c:122: strcpy (Str_1_Loc, "DHRYSTONE PROGRAM, 1'ST STRING");
   00EA 90s00r00            529 	mov	dptr,#_strcpy_PARM_2
   00ED 74r43               530 	mov	a,#__str_4
   00EF F0                  531 	movx	@dptr,a
   00F0 A3                  532 	inc	dptr
   00F1 74s00               533 	mov	a,#(__str_4 >> 8)
   00F3 F0                  534 	movx	@dptr,a
   00F4 A3                  535 	inc	dptr
   00F5 74 80               536 	mov	a,#0x80
   00F7 F0                  537 	movx	@dptr,a
   00F8 90s05r4B            538 	mov	dptr,#_main_Str_1_Loc_1_73
   00FB 75 F0 00            539 	mov	b,#0x00
   00FE 12s00r00            540 	lcall	_strcpy
                            541 ;	src/dhry21a.c:124: Arr_2_Glob [8][7] = 10;
   0101 90s01rDC            542 	mov	dptr,#(_Arr_2_Glob + 0x019e)
   0104 74 0A               543 	mov	a,#0x0A
   0106 F0                  544 	movx	@dptr,a
   0107 A3                  545 	inc	dptr
   0108 E4                  546 	clr	a
   0109 F0                  547 	movx	@dptr,a
                            548 ;	src/dhry21a.c:130: printf ("\n");
   010A 74r62               549 	mov	a,#__str_5
   010C C0 E0               550 	push	acc
   010E 74s00               551 	mov	a,#(__str_5 >> 8)
   0110 C0 E0               552 	push	acc
   0112 74 80               553 	mov	a,#0x80
   0114 C0 E0               554 	push	acc
   0116 12s00r00            555 	lcall	_printf
   0119 15 81               556 	dec	sp
   011B 15 81               557 	dec	sp
   011D 15 81               558 	dec	sp
                            559 ;	src/dhry21a.c:131: printf ("Dhrystone Benchmark, Version 2.1 (Language: C)\n");
   011F 74r64               560 	mov	a,#__str_6
   0121 C0 E0               561 	push	acc
   0123 74s00               562 	mov	a,#(__str_6 >> 8)
   0125 C0 E0               563 	push	acc
   0127 74 80               564 	mov	a,#0x80
   0129 C0 E0               565 	push	acc
   012B 12s00r00            566 	lcall	_printf
   012E 15 81               567 	dec	sp
   0130 15 81               568 	dec	sp
   0132 15 81               569 	dec	sp
                            570 ;	src/dhry21a.c:132: printf ("\n");
   0134 74r62               571 	mov	a,#__str_5
   0136 C0 E0               572 	push	acc
   0138 74s00               573 	mov	a,#(__str_5 >> 8)
   013A C0 E0               574 	push	acc
   013C 74 80               575 	mov	a,#0x80
   013E C0 E0               576 	push	acc
   0140 12s00r00            577 	lcall	_printf
   0143 15 81               578 	dec	sp
   0145 15 81               579 	dec	sp
   0147 15 81               580 	dec	sp
                            581 ;	src/dhry21a.c:157: printf ("Execution starts, %d runs through Dhrystone\n",Number_Of_Runs);
   0149 74 A8               582 	mov	a,#0xA8
   014B C0 E0               583 	push	acc
   014D 74 61               584 	mov	a,#0x61
   014F C0 E0               585 	push	acc
   0151 74r94               586 	mov	a,#__str_7
   0153 C0 E0               587 	push	acc
   0155 74s00               588 	mov	a,#(__str_7 >> 8)
   0157 C0 E0               589 	push	acc
   0159 74 80               590 	mov	a,#0x80
   015B C0 E0               591 	push	acc
   015D 12s00r00            592 	lcall	_printf
   0160 E5 81               593 	mov	a,sp
   0162 24 FB               594 	add	a,#0xfb
   0164 F5 81               595 	mov	sp,a
                            596 ;	src/dhry21a.c:163: msecs_start = soc_get_msecs();
   0166 12s00r00            597 	lcall	_soc_get_msecs
   0169 AC 82               598 	mov	r4,dpl
   016B AD 83               599 	mov	r5,dph
   016D AE F0               600 	mov	r6,b
   016F FF                  601 	mov	r7,a
   0170 90s05r20            602 	mov	dptr,#_msecs_start
   0173 EC                  603 	mov	a,r4
   0174 F0                  604 	movx	@dptr,a
   0175 A3                  605 	inc	dptr
   0176 ED                  606 	mov	a,r5
   0177 F0                  607 	movx	@dptr,a
   0178 A3                  608 	inc	dptr
   0179 EE                  609 	mov	a,r6
   017A F0                  610 	movx	@dptr,a
   017B A3                  611 	inc	dptr
   017C EF                  612 	mov	a,r7
   017D F0                  613 	movx	@dptr,a
                            614 ;	src/dhry21a.c:168: for (Run_Index = 1; Run_Index <= Number_Of_Runs; ++Run_Index )
   017E 7E 01               615 	mov	r6,#0x01
   0180 7F 00               616 	mov	r7,#0x00
   0182                     617 00112$:
   0182 C3                  618 	clr	c
   0183 74 A8               619 	mov	a,#0xA8
   0185 9E                  620 	subb	a,r6
   0186 74 E1               621 	mov	a,#(0x61 ^ 0x80)
   0188 8F F0               622 	mov	b,r7
   018A 63 F0 80            623 	xrl	b,#0x80
   018D 95 F0               624 	subb	a,b
   018F 50 03               625 	jnc	00138$
   0191 02s04r00            626 	ljmp	00115$
   0194                     627 00138$:
                            628 ;	src/dhry21a.c:173: Proc_5();
   0194 C0 07               629 	push	ar7
   0196 C0 06               630 	push	ar6
   0198 12s0ErE2            631 	lcall	_Proc_5
                            632 ;	src/dhry21a.c:174: Proc_4();
   019B 12s0ErBA            633 	lcall	_Proc_4
                            634 ;	src/dhry21a.c:176: Int_1_Loc = 2;
   019E 90s05r44            635 	mov	dptr,#_main_Int_1_Loc_1_73
   01A1 74 02               636 	mov	a,#0x02
   01A3 F0                  637 	movx	@dptr,a
   01A4 A3                  638 	inc	dptr
   01A5 E4                  639 	clr	a
   01A6 F0                  640 	movx	@dptr,a
                            641 ;	src/dhry21a.c:177: Int_2_Loc = 3;
   01A7 90s05r46            642 	mov	dptr,#_main_Int_2_Loc_1_73
   01AA 74 03               643 	mov	a,#0x03
   01AC F0                  644 	movx	@dptr,a
   01AD A3                  645 	inc	dptr
   01AE E4                  646 	clr	a
   01AF F0                  647 	movx	@dptr,a
                            648 ;	src/dhry21a.c:178: strcpy (Str_2_Loc, "DHRYSTONE PROGRAM, 2'ND STRING");
   01B0 90s00r00            649 	mov	dptr,#_strcpy_PARM_2
   01B3 74rC1               650 	mov	a,#__str_8
   01B5 F0                  651 	movx	@dptr,a
   01B6 A3                  652 	inc	dptr
   01B7 74s00               653 	mov	a,#(__str_8 >> 8)
   01B9 F0                  654 	movx	@dptr,a
   01BA A3                  655 	inc	dptr
   01BB 74 80               656 	mov	a,#0x80
   01BD F0                  657 	movx	@dptr,a
   01BE 90s05r6A            658 	mov	dptr,#_main_Str_2_Loc_1_73
   01C1 75 F0 00            659 	mov	b,#0x00
   01C4 12s00r00            660 	lcall	_strcpy
                            661 ;	src/dhry21a.c:179: Enum_Loc = Ident_2;
   01C7 90s05r4A            662 	mov	dptr,#_main_Enum_Loc_1_73
   01CA 74 01               663 	mov	a,#0x01
   01CC F0                  664 	movx	@dptr,a
                            665 ;	src/dhry21a.c:180: Bool_Glob = ! Func_2 (Str_1_Loc, Str_2_Loc);
   01CD 90s00r00            666 	mov	dptr,#_Func_2_PARM_2
   01D0 74r6A               667 	mov	a,#_main_Str_2_Loc_1_73
   01D2 F0                  668 	movx	@dptr,a
   01D3 A3                  669 	inc	dptr
   01D4 74s05               670 	mov	a,#(_main_Str_2_Loc_1_73 >> 8)
   01D6 F0                  671 	movx	@dptr,a
   01D7 A3                  672 	inc	dptr
   01D8 E4                  673 	clr	a
   01D9 F0                  674 	movx	@dptr,a
   01DA 90s05r4B            675 	mov	dptr,#_main_Str_1_Loc_1_73
   01DD 75 F0 00            676 	mov	b,#0x00
   01E0 12s00r00            677 	lcall	_Func_2
   01E3 AC 82               678 	mov	r4,dpl
   01E5 AD 83               679 	mov	r5,dph
   01E7 D0 06               680 	pop	ar6
   01E9 D0 07               681 	pop	ar7
   01EB EC                  682 	mov	a,r4
   01EC 4D                  683 	orl	a,r5
   01ED B4 01 00            684 	cjne	a,#0x01,00139$
   01F0                     685 00139$:
   01F0 E4                  686 	clr	a
   01F1 33                  687 	rlc	a
   01F2 FC                  688 	mov	r4,a
   01F3 90s00r08            689 	mov	dptr,#_Bool_Glob
   01F6 F0                  690 	movx	@dptr,a
   01F7 EC                  691 	mov	a,r4
   01F8 33                  692 	rlc	a
   01F9 95 E0               693 	subb	a,acc
   01FB A3                  694 	inc	dptr
   01FC F0                  695 	movx	@dptr,a
                            696 ;	src/dhry21a.c:182: while (Int_1_Loc < Int_2_Loc)  /* loop body executed once */
   01FD 7C 02               697 	mov	r4,#0x02
   01FF 7D 00               698 	mov	r5,#0x00
   0201                     699 00103$:
   0201 C3                  700 	clr	c
   0202 EC                  701 	mov	a,r4
   0203 94 03               702 	subb	a,#0x03
   0205 ED                  703 	mov	a,r5
   0206 64 80               704 	xrl	a,#0x80
   0208 94 80               705 	subb	a,#0x80
   020A 50 67               706 	jnc	00126$
                            707 ;	src/dhry21a.c:184: Int_3_Loc = 5 * Int_1_Loc - Int_2_Loc;
   020C 90s00r00            708 	mov	dptr,#__mulint_PARM_2
   020F EC                  709 	mov	a,r4
   0210 F0                  710 	movx	@dptr,a
   0211 A3                  711 	inc	dptr
   0212 ED                  712 	mov	a,r5
   0213 F0                  713 	movx	@dptr,a
   0214 90 00 05            714 	mov	dptr,#0x0005
   0217 C0 07               715 	push	ar7
   0219 C0 06               716 	push	ar6
   021B C0 05               717 	push	ar5
   021D C0 04               718 	push	ar4
   021F 12s00r00            719 	lcall	__mulint
   0222 E5 82               720 	mov	a,dpl
   0224 85 83 F0            721 	mov	b,dph
   0227 D0 04               722 	pop	ar4
   0229 D0 05               723 	pop	ar5
   022B 24 FD               724 	add	a,#0xFD
   022D FA                  725 	mov	r2,a
   022E E5 F0               726 	mov	a,b
   0230 34 FF               727 	addc	a,#0xFF
   0232 FB                  728 	mov	r3,a
   0233 90s05r48            729 	mov	dptr,#_main_Int_3_Loc_1_73
   0236 EA                  730 	mov	a,r2
   0237 F0                  731 	movx	@dptr,a
   0238 A3                  732 	inc	dptr
   0239 EB                  733 	mov	a,r3
   023A F0                  734 	movx	@dptr,a
                            735 ;	src/dhry21a.c:186: Proc_7 (Int_1_Loc, Int_2_Loc, &Int_3_Loc);
   023B 90s00r00            736 	mov	dptr,#_Proc_7_PARM_2
   023E 74 03               737 	mov	a,#0x03
   0240 F0                  738 	movx	@dptr,a
   0241 A3                  739 	inc	dptr
   0242 E4                  740 	clr	a
   0243 F0                  741 	movx	@dptr,a
   0244 90s00r00            742 	mov	dptr,#_Proc_7_PARM_3
   0247 74r48               743 	mov	a,#_main_Int_3_Loc_1_73
   0249 F0                  744 	movx	@dptr,a
   024A A3                  745 	inc	dptr
   024B 74s05               746 	mov	a,#(_main_Int_3_Loc_1_73 >> 8)
   024D F0                  747 	movx	@dptr,a
   024E A3                  748 	inc	dptr
   024F E4                  749 	clr	a
   0250 F0                  750 	movx	@dptr,a
   0251 8C 82               751 	mov	dpl,r4
   0253 8D 83               752 	mov	dph,r5
   0255 C0 05               753 	push	ar5
   0257 C0 04               754 	push	ar4
   0259 12s00r00            755 	lcall	_Proc_7
   025C D0 04               756 	pop	ar4
   025E D0 05               757 	pop	ar5
   0260 D0 06               758 	pop	ar6
   0262 D0 07               759 	pop	ar7
                            760 ;	src/dhry21a.c:188: Int_1_Loc += 1;
   0264 0C                  761 	inc	r4
   0265 BC 00 01            762 	cjne	r4,#0x00,00141$
   0268 0D                  763 	inc	r5
   0269                     764 00141$:
   0269 90s05r44            765 	mov	dptr,#_main_Int_1_Loc_1_73
   026C EC                  766 	mov	a,r4
   026D F0                  767 	movx	@dptr,a
   026E A3                  768 	inc	dptr
   026F ED                  769 	mov	a,r5
   0270 F0                  770 	movx	@dptr,a
   0271 80 8E               771 	sjmp	00103$
   0273                     772 00126$:
   0273 90s05r44            773 	mov	dptr,#_main_Int_1_Loc_1_73
   0276 EC                  774 	mov	a,r4
   0277 F0                  775 	movx	@dptr,a
   0278 A3                  776 	inc	dptr
   0279 ED                  777 	mov	a,r5
   027A F0                  778 	movx	@dptr,a
                            779 ;	src/dhry21a.c:194: Proc_8 (Arr_1_Glob, Arr_2_Glob, Int_1_Loc, Int_3_Loc);
   027B 90s05r48            780 	mov	dptr,#_main_Int_3_Loc_1_73
   027E E0                  781 	movx	a,@dptr
   027F FA                  782 	mov	r2,a
   0280 A3                  783 	inc	dptr
   0281 E0                  784 	movx	a,@dptr
   0282 FB                  785 	mov	r3,a
   0283 90s00r00            786 	mov	dptr,#_Proc_8_PARM_2
   0286 74r3E               787 	mov	a,#_Arr_2_Glob
   0288 F0                  788 	movx	@dptr,a
   0289 A3                  789 	inc	dptr
   028A 74s00               790 	mov	a,#(_Arr_2_Glob >> 8)
   028C F0                  791 	movx	@dptr,a
   028D A3                  792 	inc	dptr
   028E E4                  793 	clr	a
   028F F0                  794 	movx	@dptr,a
   0290 90s00r00            795 	mov	dptr,#_Proc_8_PARM_3
   0293 EC                  796 	mov	a,r4
   0294 F0                  797 	movx	@dptr,a
   0295 A3                  798 	inc	dptr
   0296 ED                  799 	mov	a,r5
   0297 F0                  800 	movx	@dptr,a
   0298 90s00r00            801 	mov	dptr,#_Proc_8_PARM_4
   029B EA                  802 	mov	a,r2
   029C F0                  803 	movx	@dptr,a
   029D A3                  804 	inc	dptr
   029E EB                  805 	mov	a,r3
   029F F0                  806 	movx	@dptr,a
   02A0 90s00r0C            807 	mov	dptr,#_Arr_1_Glob
   02A3 75 F0 00            808 	mov	b,#0x00
   02A6 C0 07               809 	push	ar7
   02A8 C0 06               810 	push	ar6
   02AA 12s00r00            811 	lcall	_Proc_8
                            812 ;	src/dhry21a.c:196: Proc_1 (Ptr_Glob);
   02AD 90s00r00            813 	mov	dptr,#_Ptr_Glob
   02B0 E0                  814 	movx	a,@dptr
   02B1 FB                  815 	mov	r3,a
   02B2 A3                  816 	inc	dptr
   02B3 E0                  817 	movx	a,@dptr
   02B4 FC                  818 	mov	r4,a
   02B5 A3                  819 	inc	dptr
   02B6 E0                  820 	movx	a,@dptr
   02B7 FD                  821 	mov	r5,a
   02B8 8B 82               822 	mov	dpl,r3
   02BA 8C 83               823 	mov	dph,r4
   02BC 8D F0               824 	mov	b,r5
   02BE 12s0BrAA            825 	lcall	_Proc_1
   02C1 D0 06               826 	pop	ar6
   02C3 D0 07               827 	pop	ar7
                            828 ;	src/dhry21a.c:197: for (Ch_Index = 'A'; Ch_Index <= Ch_2_Glob; ++Ch_Index)
   02C5 8E 04               829 	mov	ar4,r6
   02C7 8F 05               830 	mov	ar5,r7
   02C9 7B 41               831 	mov	r3,#0x41
   02CB                     832 00108$:
   02CB 90s00r0B            833 	mov	dptr,#_Ch_2_Glob
   02CE E0                  834 	movx	a,@dptr
   02CF FA                  835 	mov	r2,a
   02D0 C3                  836 	clr	c
   02D1 64 80               837 	xrl	a,#0x80
   02D3 8B F0               838 	mov	b,r3
   02D5 63 F0 80            839 	xrl	b,#0x80
   02D8 95 F0               840 	subb	a,b
   02DA 40 7B               841 	jc	00111$
                            842 ;	src/dhry21a.c:200: if (Enum_Loc == Func_1 (Ch_Index, 'C'))
   02DC 90s00r00            843 	mov	dptr,#_Func_1_PARM_2
   02DF 74 43               844 	mov	a,#0x43
   02E1 F0                  845 	movx	@dptr,a
   02E2 8B 82               846 	mov	dpl,r3
   02E4 C0 07               847 	push	ar7
   02E6 C0 06               848 	push	ar6
   02E8 C0 05               849 	push	ar5
   02EA C0 04               850 	push	ar4
   02EC C0 03               851 	push	ar3
   02EE 12s00r00            852 	lcall	_Func_1
   02F1 AA 82               853 	mov	r2,dpl
   02F3 D0 03               854 	pop	ar3
   02F5 D0 04               855 	pop	ar4
   02F7 D0 05               856 	pop	ar5
   02F9 D0 06               857 	pop	ar6
   02FB D0 07               858 	pop	ar7
   02FD 90s05r4A            859 	mov	dptr,#_main_Enum_Loc_1_73
   0300 E0                  860 	movx	a,@dptr
   0301 F9                  861 	mov	r1,a
   0302 B5 02 4E            862 	cjne	a,ar2,00110$
                            863 ;	src/dhry21a.c:203: Proc_6 (Ident_1, &Enum_Loc);
   0305 90s00r00            864 	mov	dptr,#_Proc_6_PARM_2
   0308 74r4A               865 	mov	a,#_main_Enum_Loc_1_73
   030A F0                  866 	movx	@dptr,a
   030B A3                  867 	inc	dptr
   030C 74s05               868 	mov	a,#(_main_Enum_Loc_1_73 >> 8)
   030E F0                  869 	movx	@dptr,a
   030F A3                  870 	inc	dptr
   0310 E4                  871 	clr	a
   0311 F0                  872 	movx	@dptr,a
   0312 75 82 00            873 	mov	dpl,#0x00
   0315 C0 07               874 	push	ar7
   0317 C0 06               875 	push	ar6
   0319 C0 05               876 	push	ar5
   031B C0 04               877 	push	ar4
   031D C0 03               878 	push	ar3
   031F 12s00r00            879 	lcall	_Proc_6
                            880 ;	src/dhry21a.c:204: strcpy (Str_2_Loc, "DHRYSTONE PROGRAM, 3'RD STRING");
   0322 90s00r00            881 	mov	dptr,#_strcpy_PARM_2
   0325 74rE0               882 	mov	a,#__str_9
   0327 F0                  883 	movx	@dptr,a
   0328 A3                  884 	inc	dptr
   0329 74s00               885 	mov	a,#(__str_9 >> 8)
   032B F0                  886 	movx	@dptr,a
   032C A3                  887 	inc	dptr
   032D 74 80               888 	mov	a,#0x80
   032F F0                  889 	movx	@dptr,a
   0330 90s05r6A            890 	mov	dptr,#_main_Str_2_Loc_1_73
   0333 75 F0 00            891 	mov	b,#0x00
   0336 12s00r00            892 	lcall	_strcpy
   0339 D0 03               893 	pop	ar3
   033B D0 04               894 	pop	ar4
   033D D0 05               895 	pop	ar5
   033F D0 06               896 	pop	ar6
   0341 D0 07               897 	pop	ar7
                            898 ;	src/dhry21a.c:205: Int_2_Loc = Run_Index;
   0343 90s05r46            899 	mov	dptr,#_main_Int_2_Loc_1_73
   0346 EC                  900 	mov	a,r4
   0347 F0                  901 	movx	@dptr,a
   0348 A3                  902 	inc	dptr
   0349 ED                  903 	mov	a,r5
   034A F0                  904 	movx	@dptr,a
                            905 ;	src/dhry21a.c:206: Int_Glob = Run_Index;
   034B 90s00r06            906 	mov	dptr,#_Int_Glob
   034E EC                  907 	mov	a,r4
   034F F0                  908 	movx	@dptr,a
   0350 A3                  909 	inc	dptr
   0351 ED                  910 	mov	a,r5
   0352 F0                  911 	movx	@dptr,a
   0353                     912 00110$:
                            913 ;	src/dhry21a.c:197: for (Ch_Index = 'A'; Ch_Index <= Ch_2_Glob; ++Ch_Index)
   0353 0B                  914 	inc	r3
   0354 02s02rCB            915 	ljmp	00108$
   0357                     916 00111$:
                            917 ;	src/dhry21a.c:210: Int_2_Loc = Int_2_Loc * Int_1_Loc;
   0357 90s05r44            918 	mov	dptr,#_main_Int_1_Loc_1_73
   035A E0                  919 	movx	a,@dptr
   035B FC                  920 	mov	r4,a
   035C A3                  921 	inc	dptr
   035D E0                  922 	movx	a,@dptr
   035E FD                  923 	mov	r5,a
   035F 90s05r46            924 	mov	dptr,#_main_Int_2_Loc_1_73
   0362 E0                  925 	movx	a,@dptr
   0363 FA                  926 	mov	r2,a
   0364 A3                  927 	inc	dptr
   0365 E0                  928 	movx	a,@dptr
   0366 FB                  929 	mov	r3,a
   0367 90s00r00            930 	mov	dptr,#__mulint_PARM_2
   036A EC                  931 	mov	a,r4
   036B F0                  932 	movx	@dptr,a
   036C A3                  933 	inc	dptr
   036D ED                  934 	mov	a,r5
   036E F0                  935 	movx	@dptr,a
   036F 8A 82               936 	mov	dpl,r2
   0371 8B 83               937 	mov	dph,r3
   0373 C0 07               938 	push	ar7
   0375 C0 06               939 	push	ar6
   0377 12s00r00            940 	lcall	__mulint
   037A E5 82               941 	mov	a,dpl
   037C 85 83 F0            942 	mov	b,dph
   037F 90s05r46            943 	mov	dptr,#_main_Int_2_Loc_1_73
   0382 F0                  944 	movx	@dptr,a
   0383 A3                  945 	inc	dptr
   0384 E5 F0               946 	mov	a,b
   0386 F0                  947 	movx	@dptr,a
                            948 ;	src/dhry21a.c:211: Int_1_Loc = Int_2_Loc / Int_3_Loc;
   0387 90s05r48            949 	mov	dptr,#_main_Int_3_Loc_1_73
   038A E0                  950 	movx	a,@dptr
   038B FC                  951 	mov	r4,a
   038C A3                  952 	inc	dptr
   038D E0                  953 	movx	a,@dptr
   038E FD                  954 	mov	r5,a
   038F 90s05r46            955 	mov	dptr,#_main_Int_2_Loc_1_73
   0392 E0                  956 	movx	a,@dptr
   0393 FA                  957 	mov	r2,a
   0394 A3                  958 	inc	dptr
   0395 E0                  959 	movx	a,@dptr
   0396 FB                  960 	mov	r3,a
   0397 90s00r00            961 	mov	dptr,#__divsint_PARM_2
   039A EC                  962 	mov	a,r4
   039B F0                  963 	movx	@dptr,a
   039C A3                  964 	inc	dptr
   039D ED                  965 	mov	a,r5
   039E F0                  966 	movx	@dptr,a
   039F 8A 82               967 	mov	dpl,r2
   03A1 8B 83               968 	mov	dph,r3
   03A3 C0 05               969 	push	ar5
   03A5 C0 04               970 	push	ar4
   03A7 C0 03               971 	push	ar3
   03A9 C0 02               972 	push	ar2
   03AB 12s00r00            973 	lcall	__divsint
   03AE A8 82               974 	mov	r0,dpl
   03B0 A9 83               975 	mov	r1,dph
   03B2 D0 02               976 	pop	ar2
   03B4 D0 03               977 	pop	ar3
   03B6 D0 04               978 	pop	ar4
   03B8 D0 05               979 	pop	ar5
   03BA 90s05r44            980 	mov	dptr,#_main_Int_1_Loc_1_73
   03BD E8                  981 	mov	a,r0
   03BE F0                  982 	movx	@dptr,a
   03BF A3                  983 	inc	dptr
   03C0 E9                  984 	mov	a,r1
   03C1 F0                  985 	movx	@dptr,a
                            986 ;	src/dhry21a.c:212: Int_2_Loc = 7 * (Int_2_Loc - Int_3_Loc) - Int_1_Loc;
   03C2 90s00r00            987 	mov	dptr,#__mulint_PARM_2
   03C5 EA                  988 	mov	a,r2
   03C6 C3                  989 	clr	c
   03C7 9C                  990 	subb	a,r4
   03C8 F0                  991 	movx	@dptr,a
   03C9 EB                  992 	mov	a,r3
   03CA 9D                  993 	subb	a,r5
   03CB A3                  994 	inc	dptr
   03CC F0                  995 	movx	@dptr,a
   03CD 90 00 07            996 	mov	dptr,#0x0007
   03D0 C0 01               997 	push	ar1
   03D2 C0 00               998 	push	ar0
   03D4 12s00r00            999 	lcall	__mulint
   03D7 E5 82              1000 	mov	a,dpl
   03D9 85 83 F0           1001 	mov	b,dph
   03DC D0 00              1002 	pop	ar0
   03DE D0 01              1003 	pop	ar1
   03E0 90s05r46           1004 	mov	dptr,#_main_Int_2_Loc_1_73
   03E3 C3                 1005 	clr	c
   03E4 98                 1006 	subb	a,r0
   03E5 F0                 1007 	movx	@dptr,a
   03E6 E5 F0              1008 	mov	a,b
   03E8 99                 1009 	subb	a,r1
   03E9 A3                 1010 	inc	dptr
   03EA F0                 1011 	movx	@dptr,a
                           1012 ;	src/dhry21a.c:214: Proc_2 (&Int_1_Loc);
   03EB 90s05r44           1013 	mov	dptr,#_main_Int_1_Loc_1_73
   03EE 75 F0 00           1014 	mov	b,#0x00
   03F1 12s0DrCC           1015 	lcall	_Proc_2
   03F4 D0 06              1016 	pop	ar6
   03F6 D0 07              1017 	pop	ar7
                           1018 ;	src/dhry21a.c:168: for (Run_Index = 1; Run_Index <= Number_Of_Runs; ++Run_Index )
   03F8 0E                 1019 	inc	r6
   03F9 BE 00 01           1020 	cjne	r6,#0x00,00145$
   03FC 0F                 1021 	inc	r7
   03FD                    1022 00145$:
   03FD 02s01r82           1023 	ljmp	00112$
   0400                    1024 00115$:
                           1025 ;	src/dhry21a.c:224: msecs_end = soc_get_msecs();
   0400 12s00r00           1026 	lcall	_soc_get_msecs
   0403 AC 82              1027 	mov	r4,dpl
   0405 AD 83              1028 	mov	r5,dph
   0407 AE F0              1029 	mov	r6,b
   0409 FF                 1030 	mov	r7,a
   040A 90s05r24           1031 	mov	dptr,#_msecs_end
   040D EC                 1032 	mov	a,r4
   040E F0                 1033 	movx	@dptr,a
   040F A3                 1034 	inc	dptr
   0410 ED                 1035 	mov	a,r5
   0411 F0                 1036 	movx	@dptr,a
   0412 A3                 1037 	inc	dptr
   0413 EE                 1038 	mov	a,r6
   0414 F0                 1039 	movx	@dptr,a
   0415 A3                 1040 	inc	dptr
   0416 EF                 1041 	mov	a,r7
   0417 F0                 1042 	movx	@dptr,a
                           1043 ;	src/dhry21a.c:229: printf ("Execution ends\n");
   0418 74rFF              1044 	mov	a,#__str_10
   041A C0 E0              1045 	push	acc
   041C 74s00              1046 	mov	a,#(__str_10 >> 8)
   041E C0 E0              1047 	push	acc
   0420 74 80              1048 	mov	a,#0x80
   0422 C0 E0              1049 	push	acc
   0424 12s00r00           1050 	lcall	_printf
   0427 15 81              1051 	dec	sp
   0429 15 81              1052 	dec	sp
   042B 15 81              1053 	dec	sp
                           1054 ;	src/dhry21a.c:230: printf ("\n");
   042D 74r62              1055 	mov	a,#__str_5
   042F C0 E0              1056 	push	acc
   0431 74s00              1057 	mov	a,#(__str_5 >> 8)
   0433 C0 E0              1058 	push	acc
   0435 74 80              1059 	mov	a,#0x80
   0437 C0 E0              1060 	push	acc
   0439 12s00r00           1061 	lcall	_printf
   043C 15 81              1062 	dec	sp
   043E 15 81              1063 	dec	sp
   0440 15 81              1064 	dec	sp
                           1065 ;	src/dhry21a.c:231: printf ("Final values of the variables used in the benchmark:\n");
   0442 74r0F              1066 	mov	a,#__str_11
   0444 C0 E0              1067 	push	acc
   0446 74s01              1068 	mov	a,#(__str_11 >> 8)
   0448 C0 E0              1069 	push	acc
   044A 74 80              1070 	mov	a,#0x80
   044C C0 E0              1071 	push	acc
   044E 12s00r00           1072 	lcall	_printf
   0451 15 81              1073 	dec	sp
   0453 15 81              1074 	dec	sp
   0455 15 81              1075 	dec	sp
                           1076 ;	src/dhry21a.c:232: printf ("\n");
   0457 74r62              1077 	mov	a,#__str_5
   0459 C0 E0              1078 	push	acc
   045B 74s00              1079 	mov	a,#(__str_5 >> 8)
   045D C0 E0              1080 	push	acc
   045F 74 80              1081 	mov	a,#0x80
   0461 C0 E0              1082 	push	acc
   0463 12s00r00           1083 	lcall	_printf
   0466 15 81              1084 	dec	sp
   0468 15 81              1085 	dec	sp
   046A 15 81              1086 	dec	sp
                           1087 ;	src/dhry21a.c:233: printf ("Int_Glob:            %d\n", Int_Glob);
   046C 90s00r06           1088 	mov	dptr,#_Int_Glob
   046F E0                 1089 	movx	a,@dptr
   0470 C0 E0              1090 	push	acc
   0472 A3                 1091 	inc	dptr
   0473 E0                 1092 	movx	a,@dptr
   0474 C0 E0              1093 	push	acc
   0476 74r45              1094 	mov	a,#__str_12
   0478 C0 E0              1095 	push	acc
   047A 74s01              1096 	mov	a,#(__str_12 >> 8)
   047C C0 E0              1097 	push	acc
   047E 74 80              1098 	mov	a,#0x80
   0480 C0 E0              1099 	push	acc
   0482 12s00r00           1100 	lcall	_printf
   0485 E5 81              1101 	mov	a,sp
   0487 24 FB              1102 	add	a,#0xfb
   0489 F5 81              1103 	mov	sp,a
                           1104 ;	src/dhry21a.c:234: printf ("        should be:   %d\n", 5);
   048B 74 05              1105 	mov	a,#0x05
   048D C0 E0              1106 	push	acc
   048F E4                 1107 	clr	a
   0490 C0 E0              1108 	push	acc
   0492 74r5E              1109 	mov	a,#__str_13
   0494 C0 E0              1110 	push	acc
   0496 74s01              1111 	mov	a,#(__str_13 >> 8)
   0498 C0 E0              1112 	push	acc
   049A 74 80              1113 	mov	a,#0x80
   049C C0 E0              1114 	push	acc
   049E 12s00r00           1115 	lcall	_printf
   04A1 E5 81              1116 	mov	a,sp
   04A3 24 FB              1117 	add	a,#0xfb
   04A5 F5 81              1118 	mov	sp,a
                           1119 ;	src/dhry21a.c:235: printf ("Bool_Glob:           %d\n", Bool_Glob);
   04A7 90s00r08           1120 	mov	dptr,#_Bool_Glob
   04AA E0                 1121 	movx	a,@dptr
   04AB C0 E0              1122 	push	acc
   04AD A3                 1123 	inc	dptr
   04AE E0                 1124 	movx	a,@dptr
   04AF C0 E0              1125 	push	acc
   04B1 74r77              1126 	mov	a,#__str_14
   04B3 C0 E0              1127 	push	acc
   04B5 74s01              1128 	mov	a,#(__str_14 >> 8)
   04B7 C0 E0              1129 	push	acc
   04B9 74 80              1130 	mov	a,#0x80
   04BB C0 E0              1131 	push	acc
   04BD 12s00r00           1132 	lcall	_printf
   04C0 E5 81              1133 	mov	a,sp
   04C2 24 FB              1134 	add	a,#0xfb
   04C4 F5 81              1135 	mov	sp,a
                           1136 ;	src/dhry21a.c:236: printf ("        should be:   %d\n", 1);
   04C6 74 01              1137 	mov	a,#0x01
   04C8 C0 E0              1138 	push	acc
   04CA E4                 1139 	clr	a
   04CB C0 E0              1140 	push	acc
   04CD 74r5E              1141 	mov	a,#__str_13
   04CF C0 E0              1142 	push	acc
   04D1 74s01              1143 	mov	a,#(__str_13 >> 8)
   04D3 C0 E0              1144 	push	acc
   04D5 74 80              1145 	mov	a,#0x80
   04D7 C0 E0              1146 	push	acc
   04D9 12s00r00           1147 	lcall	_printf
   04DC E5 81              1148 	mov	a,sp
   04DE 24 FB              1149 	add	a,#0xfb
   04E0 F5 81              1150 	mov	sp,a
                           1151 ;	src/dhry21a.c:237: printf ("Ch_1_Glob:           %c\n", Ch_1_Glob);
   04E2 90s00r0A           1152 	mov	dptr,#_Ch_1_Glob
   04E5 E0                 1153 	movx	a,@dptr
   04E6 FF                 1154 	mov	r7,a
   04E7 33                 1155 	rlc	a
   04E8 95 E0              1156 	subb	a,acc
   04EA FE                 1157 	mov	r6,a
   04EB C0 07              1158 	push	ar7
   04ED C0 06              1159 	push	ar6
   04EF 74r90              1160 	mov	a,#__str_15
   04F1 C0 E0              1161 	push	acc
   04F3 74s01              1162 	mov	a,#(__str_15 >> 8)
   04F5 C0 E0              1163 	push	acc
   04F7 74 80              1164 	mov	a,#0x80
   04F9 C0 E0              1165 	push	acc
   04FB 12s00r00           1166 	lcall	_printf
   04FE E5 81              1167 	mov	a,sp
   0500 24 FB              1168 	add	a,#0xfb
   0502 F5 81              1169 	mov	sp,a
                           1170 ;	src/dhry21a.c:238: printf ("        should be:   %c\n", 'A');
   0504 74 41              1171 	mov	a,#0x41
   0506 C0 E0              1172 	push	acc
   0508 E4                 1173 	clr	a
   0509 C0 E0              1174 	push	acc
   050B 74rA9              1175 	mov	a,#__str_16
   050D C0 E0              1176 	push	acc
   050F 74s01              1177 	mov	a,#(__str_16 >> 8)
   0511 C0 E0              1178 	push	acc
   0513 74 80              1179 	mov	a,#0x80
   0515 C0 E0              1180 	push	acc
   0517 12s00r00           1181 	lcall	_printf
   051A E5 81              1182 	mov	a,sp
   051C 24 FB              1183 	add	a,#0xfb
   051E F5 81              1184 	mov	sp,a
                           1185 ;	src/dhry21a.c:239: printf ("Ch_2_Glob:           %c\n", Ch_2_Glob);
   0520 90s00r0B           1186 	mov	dptr,#_Ch_2_Glob
   0523 E0                 1187 	movx	a,@dptr
   0524 FF                 1188 	mov	r7,a
   0525 33                 1189 	rlc	a
   0526 95 E0              1190 	subb	a,acc
   0528 FE                 1191 	mov	r6,a
   0529 C0 07              1192 	push	ar7
   052B C0 06              1193 	push	ar6
   052D 74rC2              1194 	mov	a,#__str_17
   052F C0 E0              1195 	push	acc
   0531 74s01              1196 	mov	a,#(__str_17 >> 8)
   0533 C0 E0              1197 	push	acc
   0535 74 80              1198 	mov	a,#0x80
   0537 C0 E0              1199 	push	acc
   0539 12s00r00           1200 	lcall	_printf
   053C E5 81              1201 	mov	a,sp
   053E 24 FB              1202 	add	a,#0xfb
   0540 F5 81              1203 	mov	sp,a
                           1204 ;	src/dhry21a.c:240: printf ("        should be:   %c\n", 'B');
   0542 74 42              1205 	mov	a,#0x42
   0544 C0 E0              1206 	push	acc
   0546 E4                 1207 	clr	a
   0547 C0 E0              1208 	push	acc
   0549 74rA9              1209 	mov	a,#__str_16
   054B C0 E0              1210 	push	acc
   054D 74s01              1211 	mov	a,#(__str_16 >> 8)
   054F C0 E0              1212 	push	acc
   0551 74 80              1213 	mov	a,#0x80
   0553 C0 E0              1214 	push	acc
   0555 12s00r00           1215 	lcall	_printf
   0558 E5 81              1216 	mov	a,sp
   055A 24 FB              1217 	add	a,#0xfb
   055C F5 81              1218 	mov	sp,a
                           1219 ;	src/dhry21a.c:241: printf ("Arr_1_Glob[8]:       %d\n", Arr_1_Glob[8]);
   055E 90s00r1C           1220 	mov	dptr,#(_Arr_1_Glob + 0x0010)
   0561 E0                 1221 	movx	a,@dptr
   0562 FE                 1222 	mov	r6,a
   0563 A3                 1223 	inc	dptr
   0564 E0                 1224 	movx	a,@dptr
   0565 FF                 1225 	mov	r7,a
   0566 C0 06              1226 	push	ar6
   0568 C0 07              1227 	push	ar7
   056A 74rDB              1228 	mov	a,#__str_18
   056C C0 E0              1229 	push	acc
   056E 74s01              1230 	mov	a,#(__str_18 >> 8)
   0570 C0 E0              1231 	push	acc
   0572 74 80              1232 	mov	a,#0x80
   0574 C0 E0              1233 	push	acc
   0576 12s00r00           1234 	lcall	_printf
   0579 E5 81              1235 	mov	a,sp
   057B 24 FB              1236 	add	a,#0xfb
   057D F5 81              1237 	mov	sp,a
                           1238 ;	src/dhry21a.c:242: printf ("        should be:   %d\n", 7);
   057F 74 07              1239 	mov	a,#0x07
   0581 C0 E0              1240 	push	acc
   0583 E4                 1241 	clr	a
   0584 C0 E0              1242 	push	acc
   0586 74r5E              1243 	mov	a,#__str_13
   0588 C0 E0              1244 	push	acc
   058A 74s01              1245 	mov	a,#(__str_13 >> 8)
   058C C0 E0              1246 	push	acc
   058E 74 80              1247 	mov	a,#0x80
   0590 C0 E0              1248 	push	acc
   0592 12s00r00           1249 	lcall	_printf
   0595 E5 81              1250 	mov	a,sp
   0597 24 FB              1251 	add	a,#0xfb
   0599 F5 81              1252 	mov	sp,a
                           1253 ;	src/dhry21a.c:243: printf ("Arr_2_Glob[8][7]:    %d\n", Arr_2_Glob[8][7]);
   059B 90s01rDC           1254 	mov	dptr,#(_Arr_2_Glob + 0x019e)
   059E E0                 1255 	movx	a,@dptr
   059F FE                 1256 	mov	r6,a
   05A0 A3                 1257 	inc	dptr
   05A1 E0                 1258 	movx	a,@dptr
   05A2 FF                 1259 	mov	r7,a
   05A3 C0 06              1260 	push	ar6
   05A5 C0 07              1261 	push	ar7
   05A7 74rF4              1262 	mov	a,#__str_19
   05A9 C0 E0              1263 	push	acc
   05AB 74s01              1264 	mov	a,#(__str_19 >> 8)
   05AD C0 E0              1265 	push	acc
   05AF 74 80              1266 	mov	a,#0x80
   05B1 C0 E0              1267 	push	acc
   05B3 12s00r00           1268 	lcall	_printf
   05B6 E5 81              1269 	mov	a,sp
   05B8 24 FB              1270 	add	a,#0xfb
   05BA F5 81              1271 	mov	sp,a
                           1272 ;	src/dhry21a.c:244: printf ("        should be:   Number_Of_Runs + 10\n");
   05BC 74r0D              1273 	mov	a,#__str_20
   05BE C0 E0              1274 	push	acc
   05C0 74s02              1275 	mov	a,#(__str_20 >> 8)
   05C2 C0 E0              1276 	push	acc
   05C4 74 80              1277 	mov	a,#0x80
   05C6 C0 E0              1278 	push	acc
   05C8 12s00r00           1279 	lcall	_printf
   05CB 15 81              1280 	dec	sp
   05CD 15 81              1281 	dec	sp
   05CF 15 81              1282 	dec	sp
                           1283 ;	src/dhry21a.c:245: printf ("Ptr_Glob->\n");
   05D1 74r37              1284 	mov	a,#__str_21
   05D3 C0 E0              1285 	push	acc
   05D5 74s02              1286 	mov	a,#(__str_21 >> 8)
   05D7 C0 E0              1287 	push	acc
   05D9 74 80              1288 	mov	a,#0x80
   05DB C0 E0              1289 	push	acc
   05DD 12s00r00           1290 	lcall	_printf
   05E0 15 81              1291 	dec	sp
   05E2 15 81              1292 	dec	sp
   05E4 15 81              1293 	dec	sp
                           1294 ;	src/dhry21a.c:246: printf ("  Ptr_Comp:          %d\n", (int) Ptr_Glob->Ptr_Comp);
   05E6 90s00r00           1295 	mov	dptr,#_Ptr_Glob
   05E9 E0                 1296 	movx	a,@dptr
   05EA FD                 1297 	mov	r5,a
   05EB A3                 1298 	inc	dptr
   05EC E0                 1299 	movx	a,@dptr
   05ED FE                 1300 	mov	r6,a
   05EE A3                 1301 	inc	dptr
   05EF E0                 1302 	movx	a,@dptr
   05F0 FF                 1303 	mov	r7,a
   05F1 8D 82              1304 	mov	dpl,r5
   05F3 8E 83              1305 	mov	dph,r6
   05F5 8F F0              1306 	mov	b,r7
   05F7 12s00r00           1307 	lcall	__gptrget
   05FA FD                 1308 	mov	r5,a
   05FB A3                 1309 	inc	dptr
   05FC 12s00r00           1310 	lcall	__gptrget
   05FF FE                 1311 	mov	r6,a
   0600 A3                 1312 	inc	dptr
   0601 12s00r00           1313 	lcall	__gptrget
   0604 C0 05              1314 	push	ar5
   0606 C0 06              1315 	push	ar6
   0608 74r43              1316 	mov	a,#__str_22
   060A C0 E0              1317 	push	acc
   060C 74s02              1318 	mov	a,#(__str_22 >> 8)
   060E C0 E0              1319 	push	acc
   0610 74 80              1320 	mov	a,#0x80
   0612 C0 E0              1321 	push	acc
   0614 12s00r00           1322 	lcall	_printf
   0617 E5 81              1323 	mov	a,sp
   0619 24 FB              1324 	add	a,#0xfb
   061B F5 81              1325 	mov	sp,a
                           1326 ;	src/dhry21a.c:247: printf ("        should be:   (implementation-dependent)\n");
   061D 74r5C              1327 	mov	a,#__str_23
   061F C0 E0              1328 	push	acc
   0621 74s02              1329 	mov	a,#(__str_23 >> 8)
   0623 C0 E0              1330 	push	acc
   0625 74 80              1331 	mov	a,#0x80
   0627 C0 E0              1332 	push	acc
   0629 12s00r00           1333 	lcall	_printf
   062C 15 81              1334 	dec	sp
   062E 15 81              1335 	dec	sp
   0630 15 81              1336 	dec	sp
                           1337 ;	src/dhry21a.c:248: printf ("  Discr:             %d\n", Ptr_Glob->Discr);
   0632 90s00r00           1338 	mov	dptr,#_Ptr_Glob
   0635 E0                 1339 	movx	a,@dptr
   0636 FD                 1340 	mov	r5,a
   0637 A3                 1341 	inc	dptr
   0638 E0                 1342 	movx	a,@dptr
   0639 FE                 1343 	mov	r6,a
   063A A3                 1344 	inc	dptr
   063B E0                 1345 	movx	a,@dptr
   063C FF                 1346 	mov	r7,a
   063D 74 03              1347 	mov	a,#0x03
   063F 2D                 1348 	add	a,r5
   0640 FD                 1349 	mov	r5,a
   0641 E4                 1350 	clr	a
   0642 3E                 1351 	addc	a,r6
   0643 FE                 1352 	mov	r6,a
   0644 8D 82              1353 	mov	dpl,r5
   0646 8E 83              1354 	mov	dph,r6
   0648 8F F0              1355 	mov	b,r7
   064A 12s00r00           1356 	lcall	__gptrget
   064D FD                 1357 	mov	r5,a
   064E 7F 00              1358 	mov	r7,#0x00
   0650 C0 05              1359 	push	ar5
   0652 C0 07              1360 	push	ar7
   0654 74r8D              1361 	mov	a,#__str_24
   0656 C0 E0              1362 	push	acc
   0658 74s02              1363 	mov	a,#(__str_24 >> 8)
   065A C0 E0              1364 	push	acc
   065C 74 80              1365 	mov	a,#0x80
   065E C0 E0              1366 	push	acc
   0660 12s00r00           1367 	lcall	_printf
   0663 E5 81              1368 	mov	a,sp
   0665 24 FB              1369 	add	a,#0xfb
   0667 F5 81              1370 	mov	sp,a
                           1371 ;	src/dhry21a.c:249: printf ("        should be:   %d\n", 0);
   0669 E4                 1372 	clr	a
   066A C0 E0              1373 	push	acc
   066C C0 E0              1374 	push	acc
   066E 74r5E              1375 	mov	a,#__str_13
   0670 C0 E0              1376 	push	acc
   0672 74s01              1377 	mov	a,#(__str_13 >> 8)
   0674 C0 E0              1378 	push	acc
   0676 74 80              1379 	mov	a,#0x80
   0678 C0 E0              1380 	push	acc
   067A 12s00r00           1381 	lcall	_printf
   067D E5 81              1382 	mov	a,sp
   067F 24 FB              1383 	add	a,#0xfb
   0681 F5 81              1384 	mov	sp,a
                           1385 ;	src/dhry21a.c:250: printf ("  Enum_Comp:         %d\n", Ptr_Glob->variant.var_1.Enum_Comp);
   0683 90s00r00           1386 	mov	dptr,#_Ptr_Glob
   0686 E0                 1387 	movx	a,@dptr
   0687 FD                 1388 	mov	r5,a
   0688 A3                 1389 	inc	dptr
   0689 E0                 1390 	movx	a,@dptr
   068A FE                 1391 	mov	r6,a
   068B A3                 1392 	inc	dptr
   068C E0                 1393 	movx	a,@dptr
   068D FF                 1394 	mov	r7,a
   068E 74 04              1395 	mov	a,#0x04
   0690 2D                 1396 	add	a,r5
   0691 FD                 1397 	mov	r5,a
   0692 E4                 1398 	clr	a
   0693 3E                 1399 	addc	a,r6
   0694 FE                 1400 	mov	r6,a
   0695 8D 82              1401 	mov	dpl,r5
   0697 8E 83              1402 	mov	dph,r6
   0699 8F F0              1403 	mov	b,r7
   069B 12s00r00           1404 	lcall	__gptrget
   069E FD                 1405 	mov	r5,a
   069F 7F 00              1406 	mov	r7,#0x00
   06A1 C0 05              1407 	push	ar5
   06A3 C0 07              1408 	push	ar7
   06A5 74rA6              1409 	mov	a,#__str_25
   06A7 C0 E0              1410 	push	acc
   06A9 74s02              1411 	mov	a,#(__str_25 >> 8)
   06AB C0 E0              1412 	push	acc
   06AD 74 80              1413 	mov	a,#0x80
   06AF C0 E0              1414 	push	acc
   06B1 12s00r00           1415 	lcall	_printf
   06B4 E5 81              1416 	mov	a,sp
   06B6 24 FB              1417 	add	a,#0xfb
   06B8 F5 81              1418 	mov	sp,a
                           1419 ;	src/dhry21a.c:251: printf ("        should be:   %d\n", 2);
   06BA 74 02              1420 	mov	a,#0x02
   06BC C0 E0              1421 	push	acc
   06BE E4                 1422 	clr	a
   06BF C0 E0              1423 	push	acc
   06C1 74r5E              1424 	mov	a,#__str_13
   06C3 C0 E0              1425 	push	acc
   06C5 74s01              1426 	mov	a,#(__str_13 >> 8)
   06C7 C0 E0              1427 	push	acc
   06C9 74 80              1428 	mov	a,#0x80
   06CB C0 E0              1429 	push	acc
   06CD 12s00r00           1430 	lcall	_printf
   06D0 E5 81              1431 	mov	a,sp
   06D2 24 FB              1432 	add	a,#0xfb
   06D4 F5 81              1433 	mov	sp,a
                           1434 ;	src/dhry21a.c:252: printf ("  Int_Comp:          %d\n", Ptr_Glob->variant.var_1.Int_Comp);
   06D6 90s00r00           1435 	mov	dptr,#_Ptr_Glob
   06D9 E0                 1436 	movx	a,@dptr
   06DA FD                 1437 	mov	r5,a
   06DB A3                 1438 	inc	dptr
   06DC E0                 1439 	movx	a,@dptr
   06DD FE                 1440 	mov	r6,a
   06DE A3                 1441 	inc	dptr
   06DF E0                 1442 	movx	a,@dptr
   06E0 FF                 1443 	mov	r7,a
   06E1 74 05              1444 	mov	a,#0x05
   06E3 2D                 1445 	add	a,r5
   06E4 FD                 1446 	mov	r5,a
   06E5 E4                 1447 	clr	a
   06E6 3E                 1448 	addc	a,r6
   06E7 FE                 1449 	mov	r6,a
   06E8 8D 82              1450 	mov	dpl,r5
   06EA 8E 83              1451 	mov	dph,r6
   06EC 8F F0              1452 	mov	b,r7
   06EE 12s00r00           1453 	lcall	__gptrget
   06F1 FD                 1454 	mov	r5,a
   06F2 A3                 1455 	inc	dptr
   06F3 12s00r00           1456 	lcall	__gptrget
   06F6 FE                 1457 	mov	r6,a
   06F7 C0 05              1458 	push	ar5
   06F9 C0 06              1459 	push	ar6
   06FB 74rBF              1460 	mov	a,#__str_26
   06FD C0 E0              1461 	push	acc
   06FF 74s02              1462 	mov	a,#(__str_26 >> 8)
   0701 C0 E0              1463 	push	acc
   0703 74 80              1464 	mov	a,#0x80
   0705 C0 E0              1465 	push	acc
   0707 12s00r00           1466 	lcall	_printf
   070A E5 81              1467 	mov	a,sp
   070C 24 FB              1468 	add	a,#0xfb
   070E F5 81              1469 	mov	sp,a
                           1470 ;	src/dhry21a.c:253: printf ("        should be:   %d\n", 17);
   0710 74 11              1471 	mov	a,#0x11
   0712 C0 E0              1472 	push	acc
   0714 E4                 1473 	clr	a
   0715 C0 E0              1474 	push	acc
   0717 74r5E              1475 	mov	a,#__str_13
   0719 C0 E0              1476 	push	acc
   071B 74s01              1477 	mov	a,#(__str_13 >> 8)
   071D C0 E0              1478 	push	acc
   071F 74 80              1479 	mov	a,#0x80
   0721 C0 E0              1480 	push	acc
   0723 12s00r00           1481 	lcall	_printf
   0726 E5 81              1482 	mov	a,sp
   0728 24 FB              1483 	add	a,#0xfb
   072A F5 81              1484 	mov	sp,a
                           1485 ;	src/dhry21a.c:254: printf ("  Str_Comp:          %s\n", Ptr_Glob->variant.var_1.Str_Comp);
   072C 90s00r00           1486 	mov	dptr,#_Ptr_Glob
   072F E0                 1487 	movx	a,@dptr
   0730 FD                 1488 	mov	r5,a
   0731 A3                 1489 	inc	dptr
   0732 E0                 1490 	movx	a,@dptr
   0733 FE                 1491 	mov	r6,a
   0734 A3                 1492 	inc	dptr
   0735 E0                 1493 	movx	a,@dptr
   0736 FF                 1494 	mov	r7,a
   0737 74 07              1495 	mov	a,#0x07
   0739 2D                 1496 	add	a,r5
   073A FD                 1497 	mov	r5,a
   073B E4                 1498 	clr	a
   073C 3E                 1499 	addc	a,r6
   073D FE                 1500 	mov	r6,a
   073E C0 05              1501 	push	ar5
   0740 C0 06              1502 	push	ar6
   0742 C0 07              1503 	push	ar7
   0744 74rD8              1504 	mov	a,#__str_27
   0746 C0 E0              1505 	push	acc
   0748 74s02              1506 	mov	a,#(__str_27 >> 8)
   074A C0 E0              1507 	push	acc
   074C 74 80              1508 	mov	a,#0x80
   074E C0 E0              1509 	push	acc
   0750 12s00r00           1510 	lcall	_printf
   0753 E5 81              1511 	mov	a,sp
   0755 24 FA              1512 	add	a,#0xfa
   0757 F5 81              1513 	mov	sp,a
                           1514 ;	src/dhry21a.c:255: printf ("        should be:   DHRYSTONE PROGRAM, SOME STRING\n");
   0759 74rF1              1515 	mov	a,#__str_28
   075B C0 E0              1516 	push	acc
   075D 74s02              1517 	mov	a,#(__str_28 >> 8)
   075F C0 E0              1518 	push	acc
   0761 74 80              1519 	mov	a,#0x80
   0763 C0 E0              1520 	push	acc
   0765 12s00r00           1521 	lcall	_printf
   0768 15 81              1522 	dec	sp
   076A 15 81              1523 	dec	sp
   076C 15 81              1524 	dec	sp
                           1525 ;	src/dhry21a.c:256: printf ("Next_Ptr_Glob->\n");
   076E 74r26              1526 	mov	a,#__str_29
   0770 C0 E0              1527 	push	acc
   0772 74s03              1528 	mov	a,#(__str_29 >> 8)
   0774 C0 E0              1529 	push	acc
   0776 74 80              1530 	mov	a,#0x80
   0778 C0 E0              1531 	push	acc
   077A 12s00r00           1532 	lcall	_printf
   077D 15 81              1533 	dec	sp
   077F 15 81              1534 	dec	sp
   0781 15 81              1535 	dec	sp
                           1536 ;	src/dhry21a.c:257: printf ("  Ptr_Comp:          %d\n", (int) Next_Ptr_Glob->Ptr_Comp);
   0783 90s00r03           1537 	mov	dptr,#_Next_Ptr_Glob
   0786 E0                 1538 	movx	a,@dptr
   0787 FD                 1539 	mov	r5,a
   0788 A3                 1540 	inc	dptr
   0789 E0                 1541 	movx	a,@dptr
   078A FE                 1542 	mov	r6,a
   078B A3                 1543 	inc	dptr
   078C E0                 1544 	movx	a,@dptr
   078D FF                 1545 	mov	r7,a
   078E 8D 82              1546 	mov	dpl,r5
   0790 8E 83              1547 	mov	dph,r6
   0792 8F F0              1548 	mov	b,r7
   0794 12s00r00           1549 	lcall	__gptrget
   0797 FD                 1550 	mov	r5,a
   0798 A3                 1551 	inc	dptr
   0799 12s00r00           1552 	lcall	__gptrget
   079C FE                 1553 	mov	r6,a
   079D A3                 1554 	inc	dptr
   079E 12s00r00           1555 	lcall	__gptrget
   07A1 C0 05              1556 	push	ar5
   07A3 C0 06              1557 	push	ar6
   07A5 74r43              1558 	mov	a,#__str_22
   07A7 C0 E0              1559 	push	acc
   07A9 74s02              1560 	mov	a,#(__str_22 >> 8)
   07AB C0 E0              1561 	push	acc
   07AD 74 80              1562 	mov	a,#0x80
   07AF C0 E0              1563 	push	acc
   07B1 12s00r00           1564 	lcall	_printf
   07B4 E5 81              1565 	mov	a,sp
   07B6 24 FB              1566 	add	a,#0xfb
   07B8 F5 81              1567 	mov	sp,a
                           1568 ;	src/dhry21a.c:258: printf ("        should be:   (implementation-dependent), same as above\n");
   07BA 74r37              1569 	mov	a,#__str_30
   07BC C0 E0              1570 	push	acc
   07BE 74s03              1571 	mov	a,#(__str_30 >> 8)
   07C0 C0 E0              1572 	push	acc
   07C2 74 80              1573 	mov	a,#0x80
   07C4 C0 E0              1574 	push	acc
   07C6 12s00r00           1575 	lcall	_printf
   07C9 15 81              1576 	dec	sp
   07CB 15 81              1577 	dec	sp
   07CD 15 81              1578 	dec	sp
                           1579 ;	src/dhry21a.c:259: printf ("  Discr:             %d\n", Next_Ptr_Glob->Discr);
   07CF 90s00r03           1580 	mov	dptr,#_Next_Ptr_Glob
   07D2 E0                 1581 	movx	a,@dptr
   07D3 FD                 1582 	mov	r5,a
   07D4 A3                 1583 	inc	dptr
   07D5 E0                 1584 	movx	a,@dptr
   07D6 FE                 1585 	mov	r6,a
   07D7 A3                 1586 	inc	dptr
   07D8 E0                 1587 	movx	a,@dptr
   07D9 FF                 1588 	mov	r7,a
   07DA 74 03              1589 	mov	a,#0x03
   07DC 2D                 1590 	add	a,r5
   07DD FD                 1591 	mov	r5,a
   07DE E4                 1592 	clr	a
   07DF 3E                 1593 	addc	a,r6
   07E0 FE                 1594 	mov	r6,a
   07E1 8D 82              1595 	mov	dpl,r5
   07E3 8E 83              1596 	mov	dph,r6
   07E5 8F F0              1597 	mov	b,r7
   07E7 12s00r00           1598 	lcall	__gptrget
   07EA FD                 1599 	mov	r5,a
   07EB 7F 00              1600 	mov	r7,#0x00
   07ED C0 05              1601 	push	ar5
   07EF C0 07              1602 	push	ar7
   07F1 74r8D              1603 	mov	a,#__str_24
   07F3 C0 E0              1604 	push	acc
   07F5 74s02              1605 	mov	a,#(__str_24 >> 8)
   07F7 C0 E0              1606 	push	acc
   07F9 74 80              1607 	mov	a,#0x80
   07FB C0 E0              1608 	push	acc
   07FD 12s00r00           1609 	lcall	_printf
   0800 E5 81              1610 	mov	a,sp
   0802 24 FB              1611 	add	a,#0xfb
   0804 F5 81              1612 	mov	sp,a
                           1613 ;	src/dhry21a.c:260: printf ("        should be:   %d\n", 0);
   0806 E4                 1614 	clr	a
   0807 C0 E0              1615 	push	acc
   0809 C0 E0              1616 	push	acc
   080B 74r5E              1617 	mov	a,#__str_13
   080D C0 E0              1618 	push	acc
   080F 74s01              1619 	mov	a,#(__str_13 >> 8)
   0811 C0 E0              1620 	push	acc
   0813 74 80              1621 	mov	a,#0x80
   0815 C0 E0              1622 	push	acc
   0817 12s00r00           1623 	lcall	_printf
   081A E5 81              1624 	mov	a,sp
   081C 24 FB              1625 	add	a,#0xfb
   081E F5 81              1626 	mov	sp,a
                           1627 ;	src/dhry21a.c:261: printf ("  Enum_Comp:         %d\n", Next_Ptr_Glob->variant.var_1.Enum_Comp);
   0820 90s00r03           1628 	mov	dptr,#_Next_Ptr_Glob
   0823 E0                 1629 	movx	a,@dptr
   0824 FD                 1630 	mov	r5,a
   0825 A3                 1631 	inc	dptr
   0826 E0                 1632 	movx	a,@dptr
   0827 FE                 1633 	mov	r6,a
   0828 A3                 1634 	inc	dptr
   0829 E0                 1635 	movx	a,@dptr
   082A FF                 1636 	mov	r7,a
   082B 74 04              1637 	mov	a,#0x04
   082D 2D                 1638 	add	a,r5
   082E FD                 1639 	mov	r5,a
   082F E4                 1640 	clr	a
   0830 3E                 1641 	addc	a,r6
   0831 FE                 1642 	mov	r6,a
   0832 8D 82              1643 	mov	dpl,r5
   0834 8E 83              1644 	mov	dph,r6
   0836 8F F0              1645 	mov	b,r7
   0838 12s00r00           1646 	lcall	__gptrget
   083B FD                 1647 	mov	r5,a
   083C 7F 00              1648 	mov	r7,#0x00
   083E C0 05              1649 	push	ar5
   0840 C0 07              1650 	push	ar7
   0842 74rA6              1651 	mov	a,#__str_25
   0844 C0 E0              1652 	push	acc
   0846 74s02              1653 	mov	a,#(__str_25 >> 8)
   0848 C0 E0              1654 	push	acc
   084A 74 80              1655 	mov	a,#0x80
   084C C0 E0              1656 	push	acc
   084E 12s00r00           1657 	lcall	_printf
   0851 E5 81              1658 	mov	a,sp
   0853 24 FB              1659 	add	a,#0xfb
   0855 F5 81              1660 	mov	sp,a
                           1661 ;	src/dhry21a.c:262: printf ("        should be:   %d\n", 1);
   0857 74 01              1662 	mov	a,#0x01
   0859 C0 E0              1663 	push	acc
   085B E4                 1664 	clr	a
   085C C0 E0              1665 	push	acc
   085E 74r5E              1666 	mov	a,#__str_13
   0860 C0 E0              1667 	push	acc
   0862 74s01              1668 	mov	a,#(__str_13 >> 8)
   0864 C0 E0              1669 	push	acc
   0866 74 80              1670 	mov	a,#0x80
   0868 C0 E0              1671 	push	acc
   086A 12s00r00           1672 	lcall	_printf
   086D E5 81              1673 	mov	a,sp
   086F 24 FB              1674 	add	a,#0xfb
   0871 F5 81              1675 	mov	sp,a
                           1676 ;	src/dhry21a.c:263: printf ("  Int_Comp:          %d\n", Next_Ptr_Glob->variant.var_1.Int_Comp);
   0873 90s00r03           1677 	mov	dptr,#_Next_Ptr_Glob
   0876 E0                 1678 	movx	a,@dptr
   0877 FD                 1679 	mov	r5,a
   0878 A3                 1680 	inc	dptr
   0879 E0                 1681 	movx	a,@dptr
   087A FE                 1682 	mov	r6,a
   087B A3                 1683 	inc	dptr
   087C E0                 1684 	movx	a,@dptr
   087D FF                 1685 	mov	r7,a
   087E 74 05              1686 	mov	a,#0x05
   0880 2D                 1687 	add	a,r5
   0881 FD                 1688 	mov	r5,a
   0882 E4                 1689 	clr	a
   0883 3E                 1690 	addc	a,r6
   0884 FE                 1691 	mov	r6,a
   0885 8D 82              1692 	mov	dpl,r5
   0887 8E 83              1693 	mov	dph,r6
   0889 8F F0              1694 	mov	b,r7
   088B 12s00r00           1695 	lcall	__gptrget
   088E FD                 1696 	mov	r5,a
   088F A3                 1697 	inc	dptr
   0890 12s00r00           1698 	lcall	__gptrget
   0893 FE                 1699 	mov	r6,a
   0894 C0 05              1700 	push	ar5
   0896 C0 06              1701 	push	ar6
   0898 74rBF              1702 	mov	a,#__str_26
   089A C0 E0              1703 	push	acc
   089C 74s02              1704 	mov	a,#(__str_26 >> 8)
   089E C0 E0              1705 	push	acc
   08A0 74 80              1706 	mov	a,#0x80
   08A2 C0 E0              1707 	push	acc
   08A4 12s00r00           1708 	lcall	_printf
   08A7 E5 81              1709 	mov	a,sp
   08A9 24 FB              1710 	add	a,#0xfb
   08AB F5 81              1711 	mov	sp,a
                           1712 ;	src/dhry21a.c:264: printf ("        should be:   %d\n", 18);
   08AD 74 12              1713 	mov	a,#0x12
   08AF C0 E0              1714 	push	acc
   08B1 E4                 1715 	clr	a
   08B2 C0 E0              1716 	push	acc
   08B4 74r5E              1717 	mov	a,#__str_13
   08B6 C0 E0              1718 	push	acc
   08B8 74s01              1719 	mov	a,#(__str_13 >> 8)
   08BA C0 E0              1720 	push	acc
   08BC 74 80              1721 	mov	a,#0x80
   08BE C0 E0              1722 	push	acc
   08C0 12s00r00           1723 	lcall	_printf
   08C3 E5 81              1724 	mov	a,sp
   08C5 24 FB              1725 	add	a,#0xfb
   08C7 F5 81              1726 	mov	sp,a
                           1727 ;	src/dhry21a.c:265: printf ("  Str_Comp:          %s\n", Next_Ptr_Glob->variant.var_1.Str_Comp);
   08C9 90s00r03           1728 	mov	dptr,#_Next_Ptr_Glob
   08CC E0                 1729 	movx	a,@dptr
   08CD FD                 1730 	mov	r5,a
   08CE A3                 1731 	inc	dptr
   08CF E0                 1732 	movx	a,@dptr
   08D0 FE                 1733 	mov	r6,a
   08D1 A3                 1734 	inc	dptr
   08D2 E0                 1735 	movx	a,@dptr
   08D3 FF                 1736 	mov	r7,a
   08D4 74 07              1737 	mov	a,#0x07
   08D6 2D                 1738 	add	a,r5
   08D7 FD                 1739 	mov	r5,a
   08D8 E4                 1740 	clr	a
   08D9 3E                 1741 	addc	a,r6
   08DA FE                 1742 	mov	r6,a
   08DB C0 05              1743 	push	ar5
   08DD C0 06              1744 	push	ar6
   08DF C0 07              1745 	push	ar7
   08E1 74rD8              1746 	mov	a,#__str_27
   08E3 C0 E0              1747 	push	acc
   08E5 74s02              1748 	mov	a,#(__str_27 >> 8)
   08E7 C0 E0              1749 	push	acc
   08E9 74 80              1750 	mov	a,#0x80
   08EB C0 E0              1751 	push	acc
   08ED 12s00r00           1752 	lcall	_printf
   08F0 E5 81              1753 	mov	a,sp
   08F2 24 FA              1754 	add	a,#0xfa
   08F4 F5 81              1755 	mov	sp,a
                           1756 ;	src/dhry21a.c:266: printf ("        should be:   DHRYSTONE PROGRAM, SOME STRING\n");
   08F6 74rF1              1757 	mov	a,#__str_28
   08F8 C0 E0              1758 	push	acc
   08FA 74s02              1759 	mov	a,#(__str_28 >> 8)
   08FC C0 E0              1760 	push	acc
   08FE 74 80              1761 	mov	a,#0x80
   0900 C0 E0              1762 	push	acc
   0902 12s00r00           1763 	lcall	_printf
   0905 15 81              1764 	dec	sp
   0907 15 81              1765 	dec	sp
   0909 15 81              1766 	dec	sp
                           1767 ;	src/dhry21a.c:267: printf ("Int_1_Loc:           %d\n", Int_1_Loc);
   090B 90s05r44           1768 	mov	dptr,#_main_Int_1_Loc_1_73
   090E E0                 1769 	movx	a,@dptr
   090F C0 E0              1770 	push	acc
   0911 A3                 1771 	inc	dptr
   0912 E0                 1772 	movx	a,@dptr
   0913 C0 E0              1773 	push	acc
   0915 74r77              1774 	mov	a,#__str_31
   0917 C0 E0              1775 	push	acc
   0919 74s03              1776 	mov	a,#(__str_31 >> 8)
   091B C0 E0              1777 	push	acc
   091D 74 80              1778 	mov	a,#0x80
   091F C0 E0              1779 	push	acc
   0921 12s00r00           1780 	lcall	_printf
   0924 E5 81              1781 	mov	a,sp
   0926 24 FB              1782 	add	a,#0xfb
   0928 F5 81              1783 	mov	sp,a
                           1784 ;	src/dhry21a.c:268: printf ("        should be:   %d\n", 5);
   092A 74 05              1785 	mov	a,#0x05
   092C C0 E0              1786 	push	acc
   092E E4                 1787 	clr	a
   092F C0 E0              1788 	push	acc
   0931 74r5E              1789 	mov	a,#__str_13
   0933 C0 E0              1790 	push	acc
   0935 74s01              1791 	mov	a,#(__str_13 >> 8)
   0937 C0 E0              1792 	push	acc
   0939 74 80              1793 	mov	a,#0x80
   093B C0 E0              1794 	push	acc
   093D 12s00r00           1795 	lcall	_printf
   0940 E5 81              1796 	mov	a,sp
   0942 24 FB              1797 	add	a,#0xfb
   0944 F5 81              1798 	mov	sp,a
                           1799 ;	src/dhry21a.c:269: printf ("Int_2_Loc:           %d\n", Int_2_Loc);
   0946 90s05r46           1800 	mov	dptr,#_main_Int_2_Loc_1_73
   0949 E0                 1801 	movx	a,@dptr
   094A C0 E0              1802 	push	acc
   094C A3                 1803 	inc	dptr
   094D E0                 1804 	movx	a,@dptr
   094E C0 E0              1805 	push	acc
   0950 74r90              1806 	mov	a,#__str_32
   0952 C0 E0              1807 	push	acc
   0954 74s03              1808 	mov	a,#(__str_32 >> 8)
   0956 C0 E0              1809 	push	acc
   0958 74 80              1810 	mov	a,#0x80
   095A C0 E0              1811 	push	acc
   095C 12s00r00           1812 	lcall	_printf
   095F E5 81              1813 	mov	a,sp
   0961 24 FB              1814 	add	a,#0xfb
   0963 F5 81              1815 	mov	sp,a
                           1816 ;	src/dhry21a.c:270: printf ("        should be:   %d\n", 13);
   0965 74 0D              1817 	mov	a,#0x0D
   0967 C0 E0              1818 	push	acc
   0969 E4                 1819 	clr	a
   096A C0 E0              1820 	push	acc
   096C 74r5E              1821 	mov	a,#__str_13
   096E C0 E0              1822 	push	acc
   0970 74s01              1823 	mov	a,#(__str_13 >> 8)
   0972 C0 E0              1824 	push	acc
   0974 74 80              1825 	mov	a,#0x80
   0976 C0 E0              1826 	push	acc
   0978 12s00r00           1827 	lcall	_printf
   097B E5 81              1828 	mov	a,sp
   097D 24 FB              1829 	add	a,#0xfb
   097F F5 81              1830 	mov	sp,a
                           1831 ;	src/dhry21a.c:271: printf ("Int_3_Loc:           %d\n", Int_3_Loc);
   0981 90s05r48           1832 	mov	dptr,#_main_Int_3_Loc_1_73
   0984 E0                 1833 	movx	a,@dptr
   0985 C0 E0              1834 	push	acc
   0987 A3                 1835 	inc	dptr
   0988 E0                 1836 	movx	a,@dptr
   0989 C0 E0              1837 	push	acc
   098B 74rA9              1838 	mov	a,#__str_33
   098D C0 E0              1839 	push	acc
   098F 74s03              1840 	mov	a,#(__str_33 >> 8)
   0991 C0 E0              1841 	push	acc
   0993 74 80              1842 	mov	a,#0x80
   0995 C0 E0              1843 	push	acc
   0997 12s00r00           1844 	lcall	_printf
   099A E5 81              1845 	mov	a,sp
   099C 24 FB              1846 	add	a,#0xfb
   099E F5 81              1847 	mov	sp,a
                           1848 ;	src/dhry21a.c:272: printf ("        should be:   %d\n", 7);
   09A0 74 07              1849 	mov	a,#0x07
   09A2 C0 E0              1850 	push	acc
   09A4 E4                 1851 	clr	a
   09A5 C0 E0              1852 	push	acc
   09A7 74r5E              1853 	mov	a,#__str_13
   09A9 C0 E0              1854 	push	acc
   09AB 74s01              1855 	mov	a,#(__str_13 >> 8)
   09AD C0 E0              1856 	push	acc
   09AF 74 80              1857 	mov	a,#0x80
   09B1 C0 E0              1858 	push	acc
   09B3 12s00r00           1859 	lcall	_printf
   09B6 E5 81              1860 	mov	a,sp
   09B8 24 FB              1861 	add	a,#0xfb
   09BA F5 81              1862 	mov	sp,a
                           1863 ;	src/dhry21a.c:273: printf ("Enum_Loc:            %d\n", Enum_Loc);
   09BC 90s05r4A           1864 	mov	dptr,#_main_Enum_Loc_1_73
   09BF E0                 1865 	movx	a,@dptr
   09C0 FF                 1866 	mov	r7,a
   09C1 7E 00              1867 	mov	r6,#0x00
   09C3 C0 07              1868 	push	ar7
   09C5 C0 06              1869 	push	ar6
   09C7 74rC2              1870 	mov	a,#__str_34
   09C9 C0 E0              1871 	push	acc
   09CB 74s03              1872 	mov	a,#(__str_34 >> 8)
   09CD C0 E0              1873 	push	acc
   09CF 74 80              1874 	mov	a,#0x80
   09D1 C0 E0              1875 	push	acc
   09D3 12s00r00           1876 	lcall	_printf
   09D6 E5 81              1877 	mov	a,sp
   09D8 24 FB              1878 	add	a,#0xfb
   09DA F5 81              1879 	mov	sp,a
                           1880 ;	src/dhry21a.c:274: printf ("        should be:   %d\n", 1);
   09DC 74 01              1881 	mov	a,#0x01
   09DE C0 E0              1882 	push	acc
   09E0 E4                 1883 	clr	a
   09E1 C0 E0              1884 	push	acc
   09E3 74r5E              1885 	mov	a,#__str_13
   09E5 C0 E0              1886 	push	acc
   09E7 74s01              1887 	mov	a,#(__str_13 >> 8)
   09E9 C0 E0              1888 	push	acc
   09EB 74 80              1889 	mov	a,#0x80
   09ED C0 E0              1890 	push	acc
   09EF 12s00r00           1891 	lcall	_printf
   09F2 E5 81              1892 	mov	a,sp
   09F4 24 FB              1893 	add	a,#0xfb
   09F6 F5 81              1894 	mov	sp,a
                           1895 ;	src/dhry21a.c:275: printf ("Str_1_Loc:           %s\n", Str_1_Loc);
   09F8 74r4B              1896 	mov	a,#_main_Str_1_Loc_1_73
   09FA C0 E0              1897 	push	acc
   09FC 74s05              1898 	mov	a,#(_main_Str_1_Loc_1_73 >> 8)
   09FE C0 E0              1899 	push	acc
   0A00 E4                 1900 	clr	a
   0A01 C0 E0              1901 	push	acc
   0A03 74rDB              1902 	mov	a,#__str_35
   0A05 C0 E0              1903 	push	acc
   0A07 74s03              1904 	mov	a,#(__str_35 >> 8)
   0A09 C0 E0              1905 	push	acc
   0A0B 74 80              1906 	mov	a,#0x80
   0A0D C0 E0              1907 	push	acc
   0A0F 12s00r00           1908 	lcall	_printf
   0A12 E5 81              1909 	mov	a,sp
   0A14 24 FA              1910 	add	a,#0xfa
   0A16 F5 81              1911 	mov	sp,a
                           1912 ;	src/dhry21a.c:276: printf ("        should be:   DHRYSTONE PROGRAM, 1'ST STRING\n");
   0A18 74rF4              1913 	mov	a,#__str_36
   0A1A C0 E0              1914 	push	acc
   0A1C 74s03              1915 	mov	a,#(__str_36 >> 8)
   0A1E C0 E0              1916 	push	acc
   0A20 74 80              1917 	mov	a,#0x80
   0A22 C0 E0              1918 	push	acc
   0A24 12s00r00           1919 	lcall	_printf
   0A27 15 81              1920 	dec	sp
   0A29 15 81              1921 	dec	sp
   0A2B 15 81              1922 	dec	sp
                           1923 ;	src/dhry21a.c:277: printf ("Str_2_Loc:           %s\n", Str_2_Loc);
   0A2D 74r6A              1924 	mov	a,#_main_Str_2_Loc_1_73
   0A2F C0 E0              1925 	push	acc
   0A31 74s05              1926 	mov	a,#(_main_Str_2_Loc_1_73 >> 8)
   0A33 C0 E0              1927 	push	acc
   0A35 E4                 1928 	clr	a
   0A36 C0 E0              1929 	push	acc
   0A38 74r29              1930 	mov	a,#__str_37
   0A3A C0 E0              1931 	push	acc
   0A3C 74s04              1932 	mov	a,#(__str_37 >> 8)
   0A3E C0 E0              1933 	push	acc
   0A40 74 80              1934 	mov	a,#0x80
   0A42 C0 E0              1935 	push	acc
   0A44 12s00r00           1936 	lcall	_printf
   0A47 E5 81              1937 	mov	a,sp
   0A49 24 FA              1938 	add	a,#0xfa
   0A4B F5 81              1939 	mov	sp,a
                           1940 ;	src/dhry21a.c:278: printf ("        should be:   DHRYSTONE PROGRAM, 2'ND STRING\n");
   0A4D 74r42              1941 	mov	a,#__str_38
   0A4F C0 E0              1942 	push	acc
   0A51 74s04              1943 	mov	a,#(__str_38 >> 8)
   0A53 C0 E0              1944 	push	acc
   0A55 74 80              1945 	mov	a,#0x80
   0A57 C0 E0              1946 	push	acc
   0A59 12s00r00           1947 	lcall	_printf
   0A5C 15 81              1948 	dec	sp
   0A5E 15 81              1949 	dec	sp
   0A60 15 81              1950 	dec	sp
                           1951 ;	src/dhry21a.c:279: printf ("\n");
   0A62 74r62              1952 	mov	a,#__str_5
   0A64 C0 E0              1953 	push	acc
   0A66 74s00              1954 	mov	a,#(__str_5 >> 8)
   0A68 C0 E0              1955 	push	acc
   0A6A 74 80              1956 	mov	a,#0x80
   0A6C C0 E0              1957 	push	acc
   0A6E 12s00r00           1958 	lcall	_printf
   0A71 15 81              1959 	dec	sp
   0A73 15 81              1960 	dec	sp
   0A75 15 81              1961 	dec	sp
                           1962 ;	src/dhry21a.c:283: msecs_end = msecs_end - msecs_start;
   0A77 90s05r20           1963 	mov	dptr,#_msecs_start
   0A7A E0                 1964 	movx	a,@dptr
   0A7B FC                 1965 	mov	r4,a
   0A7C A3                 1966 	inc	dptr
   0A7D E0                 1967 	movx	a,@dptr
   0A7E FD                 1968 	mov	r5,a
   0A7F A3                 1969 	inc	dptr
   0A80 E0                 1970 	movx	a,@dptr
   0A81 FE                 1971 	mov	r6,a
   0A82 A3                 1972 	inc	dptr
   0A83 E0                 1973 	movx	a,@dptr
   0A84 FF                 1974 	mov	r7,a
   0A85 90s05r24           1975 	mov	dptr,#_msecs_end
   0A88 E0                 1976 	movx	a,@dptr
   0A89 F8                 1977 	mov	r0,a
   0A8A A3                 1978 	inc	dptr
   0A8B E0                 1979 	movx	a,@dptr
   0A8C F9                 1980 	mov	r1,a
   0A8D A3                 1981 	inc	dptr
   0A8E E0                 1982 	movx	a,@dptr
   0A8F FA                 1983 	mov	r2,a
   0A90 A3                 1984 	inc	dptr
   0A91 E0                 1985 	movx	a,@dptr
   0A92 FB                 1986 	mov	r3,a
   0A93 90s05r24           1987 	mov	dptr,#_msecs_end
   0A96 E8                 1988 	mov	a,r0
   0A97 C3                 1989 	clr	c
   0A98 9C                 1990 	subb	a,r4
   0A99 F0                 1991 	movx	@dptr,a
   0A9A E9                 1992 	mov	a,r1
   0A9B 9D                 1993 	subb	a,r5
   0A9C A3                 1994 	inc	dptr
   0A9D F0                 1995 	movx	@dptr,a
   0A9E EA                 1996 	mov	a,r2
   0A9F 9E                 1997 	subb	a,r6
   0AA0 A3                 1998 	inc	dptr
   0AA1 F0                 1999 	movx	@dptr,a
   0AA2 EB                 2000 	mov	a,r3
   0AA3 9F                 2001 	subb	a,r7
   0AA4 A3                 2002 	inc	dptr
   0AA5 F0                 2003 	movx	@dptr,a
                           2004 ;	src/dhry21a.c:287: (uint32_t)(msecs_end - 1000*(msecs_end/1000)));
   0AA6 90s05r24           2005 	mov	dptr,#_msecs_end
   0AA9 E0                 2006 	movx	a,@dptr
   0AAA FC                 2007 	mov	r4,a
   0AAB A3                 2008 	inc	dptr
   0AAC E0                 2009 	movx	a,@dptr
   0AAD FD                 2010 	mov	r5,a
   0AAE A3                 2011 	inc	dptr
   0AAF E0                 2012 	movx	a,@dptr
   0AB0 FE                 2013 	mov	r6,a
   0AB1 A3                 2014 	inc	dptr
   0AB2 E0                 2015 	movx	a,@dptr
   0AB3 FF                 2016 	mov	r7,a
   0AB4 90s00r00           2017 	mov	dptr,#__divulong_PARM_2
   0AB7 74 E8              2018 	mov	a,#0xE8
   0AB9 F0                 2019 	movx	@dptr,a
   0ABA A3                 2020 	inc	dptr
   0ABB 74 03              2021 	mov	a,#0x03
   0ABD F0                 2022 	movx	@dptr,a
   0ABE A3                 2023 	inc	dptr
   0ABF E4                 2024 	clr	a
   0AC0 F0                 2025 	movx	@dptr,a
   0AC1 A3                 2026 	inc	dptr
   0AC2 F0                 2027 	movx	@dptr,a
   0AC3 8C 82              2028 	mov	dpl,r4
   0AC5 8D 83              2029 	mov	dph,r5
   0AC7 8E F0              2030 	mov	b,r6
   0AC9 EF                 2031 	mov	a,r7
   0ACA C0 07              2032 	push	ar7
   0ACC C0 06              2033 	push	ar6
   0ACE C0 05              2034 	push	ar5
   0AD0 C0 04              2035 	push	ar4
   0AD2 12s00r00           2036 	lcall	__divulong
   0AD5 85 82*00           2037 	mov	_main_sloc0_1_0,dpl
   0AD8 85 83*01           2038 	mov	(_main_sloc0_1_0 + 1),dph
   0ADB 85 F0*02           2039 	mov	(_main_sloc0_1_0 + 2),b
   0ADE F5*03              2040 	mov	(_main_sloc0_1_0 + 3),a
   0AE0 90s00r00           2041 	mov	dptr,#__mullong_PARM_2
   0AE3 E5*00              2042 	mov	a,_main_sloc0_1_0
   0AE5 F0                 2043 	movx	@dptr,a
   0AE6 A3                 2044 	inc	dptr
   0AE7 E5*01              2045 	mov	a,(_main_sloc0_1_0 + 1)
   0AE9 F0                 2046 	movx	@dptr,a
   0AEA A3                 2047 	inc	dptr
   0AEB E5*02              2048 	mov	a,(_main_sloc0_1_0 + 2)
   0AED F0                 2049 	movx	@dptr,a
   0AEE A3                 2050 	inc	dptr
   0AEF E5*03              2051 	mov	a,(_main_sloc0_1_0 + 3)
   0AF1 F0                 2052 	movx	@dptr,a
   0AF2 90 03 E8           2053 	mov	dptr,#0x03E8
   0AF5 E4                 2054 	clr	a
   0AF6 F5 F0              2055 	mov	b,a
   0AF8 12s00r00           2056 	lcall	__mullong
   0AFB A8 82              2057 	mov	r0,dpl
   0AFD A9 83              2058 	mov	r1,dph
   0AFF AA F0              2059 	mov	r2,b
   0B01 FB                 2060 	mov	r3,a
   0B02 D0 04              2061 	pop	ar4
   0B04 D0 05              2062 	pop	ar5
   0B06 D0 06              2063 	pop	ar6
   0B08 D0 07              2064 	pop	ar7
   0B0A EC                 2065 	mov	a,r4
   0B0B C3                 2066 	clr	c
   0B0C 98                 2067 	subb	a,r0
   0B0D FC                 2068 	mov	r4,a
   0B0E ED                 2069 	mov	a,r5
   0B0F 99                 2070 	subb	a,r1
   0B10 FD                 2071 	mov	r5,a
   0B11 EE                 2072 	mov	a,r6
   0B12 9A                 2073 	subb	a,r2
   0B13 FE                 2074 	mov	r6,a
   0B14 EF                 2075 	mov	a,r7
   0B15 9B                 2076 	subb	a,r3
   0B16 FF                 2077 	mov	r7,a
                           2078 ;	src/dhry21a.c:284: printf("Time elapsed:          %lu.%03lu seconds\n", 
   0B17 C0 04              2079 	push	ar4
   0B19 C0 05              2080 	push	ar5
   0B1B C0 06              2081 	push	ar6
   0B1D C0 07              2082 	push	ar7
   0B1F C0*00              2083 	push	_main_sloc0_1_0
   0B21 C0*01              2084 	push	(_main_sloc0_1_0 + 1)
   0B23 C0*02              2085 	push	(_main_sloc0_1_0 + 2)
   0B25 C0*03              2086 	push	(_main_sloc0_1_0 + 3)
   0B27 74r77              2087 	mov	a,#__str_39
   0B29 C0 E0              2088 	push	acc
   0B2B 74s04              2089 	mov	a,#(__str_39 >> 8)
   0B2D C0 E0              2090 	push	acc
   0B2F 74 80              2091 	mov	a,#0x80
   0B31 C0 E0              2092 	push	acc
   0B33 12s00r00           2093 	lcall	_printf
   0B36 E5 81              2094 	mov	a,sp
   0B38 24 F5              2095 	add	a,#0xf5
   0B3A F5 81              2096 	mov	sp,a
                           2097 ;	src/dhry21a.c:290: dps = ((uint32_t)Number_Of_Runs)*1000/(uint32_t)(msecs_end);
   0B3C 90s05r24           2098 	mov	dptr,#_msecs_end
   0B3F E0                 2099 	movx	a,@dptr
   0B40 FC                 2100 	mov	r4,a
   0B41 A3                 2101 	inc	dptr
   0B42 E0                 2102 	movx	a,@dptr
   0B43 FD                 2103 	mov	r5,a
   0B44 A3                 2104 	inc	dptr
   0B45 E0                 2105 	movx	a,@dptr
   0B46 FE                 2106 	mov	r6,a
   0B47 A3                 2107 	inc	dptr
   0B48 E0                 2108 	movx	a,@dptr
   0B49 FF                 2109 	mov	r7,a
   0B4A 90s00r00           2110 	mov	dptr,#__divulong_PARM_2
   0B4D EC                 2111 	mov	a,r4
   0B4E F0                 2112 	movx	@dptr,a
   0B4F A3                 2113 	inc	dptr
   0B50 ED                 2114 	mov	a,r5
   0B51 F0                 2115 	movx	@dptr,a
   0B52 A3                 2116 	inc	dptr
   0B53 EE                 2117 	mov	a,r6
   0B54 F0                 2118 	movx	@dptr,a
   0B55 A3                 2119 	inc	dptr
   0B56 EF                 2120 	mov	a,r7
   0B57 F0                 2121 	movx	@dptr,a
   0B58 90 78 40           2122 	mov	dptr,#0x7840
   0B5B 75 F0 7D           2123 	mov	b,#0x7D
   0B5E 74 01              2124 	mov	a,#0x01
   0B60 12s00r00           2125 	lcall	__divulong
   0B63 AC 82              2126 	mov	r4,dpl
   0B65 AD 83              2127 	mov	r5,dph
   0B67 AE F0              2128 	mov	r6,b
   0B69 FF                 2129 	mov	r7,a
   0B6A 90s05r28           2130 	mov	dptr,#_dps
   0B6D EC                 2131 	mov	a,r4
   0B6E F0                 2132 	movx	@dptr,a
   0B6F A3                 2133 	inc	dptr
   0B70 ED                 2134 	mov	a,r5
   0B71 F0                 2135 	movx	@dptr,a
   0B72 A3                 2136 	inc	dptr
   0B73 EE                 2137 	mov	a,r6
   0B74 F0                 2138 	movx	@dptr,a
   0B75 A3                 2139 	inc	dptr
   0B76 EF                 2140 	mov	a,r7
   0B77 F0                 2141 	movx	@dptr,a
                           2142 ;	src/dhry21a.c:291: printf("Dhrystones per second: %d\n\n", (int16_t)(dps));    
   0B78 C0 04              2143 	push	ar4
   0B7A C0 05              2144 	push	ar5
   0B7C 74rA1              2145 	mov	a,#__str_40
   0B7E C0 E0              2146 	push	acc
   0B80 74s04              2147 	mov	a,#(__str_40 >> 8)
   0B82 C0 E0              2148 	push	acc
   0B84 74 80              2149 	mov	a,#0x80
   0B86 C0 E0              2150 	push	acc
   0B88 12s00r00           2151 	lcall	_printf
   0B8B E5 81              2152 	mov	a,sp
   0B8D 24 FB              2153 	add	a,#0xfb
   0B8F F5 81              2154 	mov	sp,a
                           2155 ;	src/dhry21a.c:292: printf("Test finished.\n\n");
   0B91 74rBD              2156 	mov	a,#__str_41
   0B93 C0 E0              2157 	push	acc
   0B95 74s04              2158 	mov	a,#(__str_41 >> 8)
   0B97 C0 E0              2159 	push	acc
   0B99 74 80              2160 	mov	a,#0x80
   0B9B C0 E0              2161 	push	acc
   0B9D 12s00r00           2162 	lcall	_printf
   0BA0 15 81              2163 	dec	sp
   0BA2 15 81              2164 	dec	sp
   0BA4 15 81              2165 	dec	sp
                           2166 ;	src/dhry21a.c:293: return 0;
   0BA6 90 00 00           2167 	mov	dptr,#0x0000
   0BA9 22                 2168 	ret
                           2169 ;------------------------------------------------------------
                           2170 ;Allocation info for local variables in function 'Proc_1'
                           2171 ;------------------------------------------------------------
                           2172 ;sloc0                     Allocated with name '_Proc_1_sloc0_1_0'
                           2173 ;sloc1                     Allocated with name '_Proc_1_sloc1_1_0'
                           2174 ;sloc2                     Allocated with name '_Proc_1_sloc2_1_0'
                           2175 ;Ptr_Val_Par               Allocated with name '_Proc_1_Ptr_Val_Par_1_80'
                           2176 ;Next_Record               Allocated with name '_Proc_1_Next_Record_1_81'
                           2177 ;------------------------------------------------------------
                           2178 ;	src/dhry21a.c:338: void Proc_1( REG Rec_Pointer Ptr_Val_Par )
                           2179 ;	-----------------------------------------
                           2180 ;	 function Proc_1
                           2181 ;	-----------------------------------------
   0BAA                    2182 _Proc_1:
   0BAA AF F0              2183 	mov	r7,b
   0BAC AE 83              2184 	mov	r6,dph
   0BAE E5 82              2185 	mov	a,dpl
   0BB0 90s05r89           2186 	mov	dptr,#_Proc_1_Ptr_Val_Par_1_80
   0BB3 F0                 2187 	movx	@dptr,a
   0BB4 A3                 2188 	inc	dptr
   0BB5 EE                 2189 	mov	a,r6
   0BB6 F0                 2190 	movx	@dptr,a
   0BB7 A3                 2191 	inc	dptr
   0BB8 EF                 2192 	mov	a,r7
   0BB9 F0                 2193 	movx	@dptr,a
                           2194 ;	src/dhry21a.c:342: REG Rec_Pointer Next_Record = Ptr_Val_Par->Ptr_Comp;  
   0BBA 90s05r89           2195 	mov	dptr,#_Proc_1_Ptr_Val_Par_1_80
   0BBD E0                 2196 	movx	a,@dptr
   0BBE F5*04              2197 	mov	_Proc_1_sloc0_1_0,a
   0BC0 A3                 2198 	inc	dptr
   0BC1 E0                 2199 	movx	a,@dptr
   0BC2 F5*05              2200 	mov	(_Proc_1_sloc0_1_0 + 1),a
   0BC4 A3                 2201 	inc	dptr
   0BC5 E0                 2202 	movx	a,@dptr
   0BC6 F5*06              2203 	mov	(_Proc_1_sloc0_1_0 + 2),a
   0BC8 85*04 82           2204 	mov	dpl,_Proc_1_sloc0_1_0
   0BCB 85*05 83           2205 	mov	dph,(_Proc_1_sloc0_1_0 + 1)
   0BCE 85*06 F0           2206 	mov	b,(_Proc_1_sloc0_1_0 + 2)
   0BD1 12s00r00           2207 	lcall	__gptrget
   0BD4 FA                 2208 	mov	r2,a
   0BD5 A3                 2209 	inc	dptr
   0BD6 12s00r00           2210 	lcall	__gptrget
   0BD9 FB                 2211 	mov	r3,a
   0BDA A3                 2212 	inc	dptr
   0BDB 12s00r00           2213 	lcall	__gptrget
   0BDE FC                 2214 	mov	r4,a
                           2215 ;	src/dhry21a.c:347: structassign (*Ptr_Val_Par->Ptr_Comp, *Ptr_Glob);
   0BDF 8A 00              2216 	mov	ar0,r2
   0BE1 8B 01              2217 	mov	ar1,r3
   0BE3 8C 07              2218 	mov	ar7,r4
   0BE5 88*07              2219 	mov	_Proc_1_sloc1_1_0,r0
   0BE7 89*08              2220 	mov	(_Proc_1_sloc1_1_0 + 1),r1
   0BE9 8F*09              2221 	mov	(_Proc_1_sloc1_1_0 + 2),r7
   0BEB 90s00r00           2222 	mov	dptr,#_Ptr_Glob
   0BEE E0                 2223 	movx	a,@dptr
   0BEF FD                 2224 	mov	r5,a
   0BF0 A3                 2225 	inc	dptr
   0BF1 E0                 2226 	movx	a,@dptr
   0BF2 FE                 2227 	mov	r6,a
   0BF3 A3                 2228 	inc	dptr
   0BF4 E0                 2229 	movx	a,@dptr
   0BF5 FF                 2230 	mov	r7,a
   0BF6 90s00r00           2231 	mov	dptr,#_memcpy_PARM_2
   0BF9 ED                 2232 	mov	a,r5
   0BFA F0                 2233 	movx	@dptr,a
   0BFB A3                 2234 	inc	dptr
   0BFC EE                 2235 	mov	a,r6
   0BFD F0                 2236 	movx	@dptr,a
   0BFE A3                 2237 	inc	dptr
   0BFF EF                 2238 	mov	a,r7
   0C00 F0                 2239 	movx	@dptr,a
   0C01 90s00r00           2240 	mov	dptr,#_memcpy_PARM_3
   0C04 74 26              2241 	mov	a,#0x26
   0C06 F0                 2242 	movx	@dptr,a
   0C07 A3                 2243 	inc	dptr
   0C08 E4                 2244 	clr	a
   0C09 F0                 2245 	movx	@dptr,a
   0C0A 85*07 82           2246 	mov	dpl,_Proc_1_sloc1_1_0
   0C0D 85*08 83           2247 	mov	dph,(_Proc_1_sloc1_1_0 + 1)
   0C10 85*09 F0           2248 	mov	b,(_Proc_1_sloc1_1_0 + 2)
   0C13 C0 04              2249 	push	ar4
   0C15 C0 03              2250 	push	ar3
   0C17 C0 02              2251 	push	ar2
   0C19 12s00r00           2252 	lcall	_memcpy
   0C1C D0 02              2253 	pop	ar2
   0C1E D0 03              2254 	pop	ar3
   0C20 D0 04              2255 	pop	ar4
                           2256 ;	src/dhry21a.c:348: Ptr_Val_Par->variant.var_1.Int_Comp = 5;
   0C22 74 04              2257 	mov	a,#0x04
   0C24 25*04              2258 	add	a,_Proc_1_sloc0_1_0
   0C26 F5*07              2259 	mov	_Proc_1_sloc1_1_0,a
   0C28 E4                 2260 	clr	a
   0C29 35*05              2261 	addc	a,(_Proc_1_sloc0_1_0 + 1)
   0C2B F5*08              2262 	mov	(_Proc_1_sloc1_1_0 + 1),a
   0C2D 85*06*09           2263 	mov	(_Proc_1_sloc1_1_0 + 2),(_Proc_1_sloc0_1_0 + 2)
   0C30 74 05              2264 	mov	a,#0x05
   0C32 25*04              2265 	add	a,_Proc_1_sloc0_1_0
   0C34 F5*0A              2266 	mov	_Proc_1_sloc2_1_0,a
   0C36 E4                 2267 	clr	a
   0C37 35*05              2268 	addc	a,(_Proc_1_sloc0_1_0 + 1)
   0C39 F5*0B              2269 	mov	(_Proc_1_sloc2_1_0 + 1),a
   0C3B 85*06*0C           2270 	mov	(_Proc_1_sloc2_1_0 + 2),(_Proc_1_sloc0_1_0 + 2)
   0C3E 85*0A 82           2271 	mov	dpl,_Proc_1_sloc2_1_0
   0C41 85*0B 83           2272 	mov	dph,(_Proc_1_sloc2_1_0 + 1)
   0C44 85*0C F0           2273 	mov	b,(_Proc_1_sloc2_1_0 + 2)
   0C47 74 05              2274 	mov	a,#0x05
   0C49 12s00r00           2275 	lcall	__gptrput
   0C4C A3                 2276 	inc	dptr
   0C4D E4                 2277 	clr	a
   0C4E 12s00r00           2278 	lcall	__gptrput
                           2279 ;	src/dhry21a.c:349: Next_Record->variant.var_1.Int_Comp 
   0C51 74 04              2280 	mov	a,#0x04
   0C53 2A                 2281 	add	a,r2
   0C54 FD                 2282 	mov	r5,a
   0C55 E4                 2283 	clr	a
   0C56 3B                 2284 	addc	a,r3
   0C57 FE                 2285 	mov	r6,a
   0C58 8C 07              2286 	mov	ar7,r4
   0C5A 0D                 2287 	inc	r5
   0C5B BD 00 01           2288 	cjne	r5,#0x00,00108$
   0C5E 0E                 2289 	inc	r6
   0C5F                    2290 00108$:
                           2291 ;	src/dhry21a.c:350: = Ptr_Val_Par->variant.var_1.Int_Comp;
   0C5F 85*0A 82           2292 	mov	dpl,_Proc_1_sloc2_1_0
   0C62 85*0B 83           2293 	mov	dph,(_Proc_1_sloc2_1_0 + 1)
   0C65 85*0C F0           2294 	mov	b,(_Proc_1_sloc2_1_0 + 2)
   0C68 12s00r00           2295 	lcall	__gptrget
   0C6B F8                 2296 	mov	r0,a
   0C6C A3                 2297 	inc	dptr
   0C6D 12s00r00           2298 	lcall	__gptrget
   0C70 F9                 2299 	mov	r1,a
   0C71 8D 82              2300 	mov	dpl,r5
   0C73 8E 83              2301 	mov	dph,r6
   0C75 8F F0              2302 	mov	b,r7
   0C77 E8                 2303 	mov	a,r0
   0C78 12s00r00           2304 	lcall	__gptrput
   0C7B A3                 2305 	inc	dptr
   0C7C E9                 2306 	mov	a,r1
   0C7D 12s00r00           2307 	lcall	__gptrput
                           2308 ;	src/dhry21a.c:351: Next_Record->Ptr_Comp = Ptr_Val_Par->Ptr_Comp;
   0C80 85*04 82           2309 	mov	dpl,_Proc_1_sloc0_1_0
   0C83 85*05 83           2310 	mov	dph,(_Proc_1_sloc0_1_0 + 1)
   0C86 85*06 F0           2311 	mov	b,(_Proc_1_sloc0_1_0 + 2)
   0C89 12s00r00           2312 	lcall	__gptrget
   0C8C FD                 2313 	mov	r5,a
   0C8D A3                 2314 	inc	dptr
   0C8E 12s00r00           2315 	lcall	__gptrget
   0C91 FE                 2316 	mov	r6,a
   0C92 A3                 2317 	inc	dptr
   0C93 12s00r00           2318 	lcall	__gptrget
   0C96 FF                 2319 	mov	r7,a
   0C97 8A 82              2320 	mov	dpl,r2
   0C99 8B 83              2321 	mov	dph,r3
   0C9B 8C F0              2322 	mov	b,r4
   0C9D ED                 2323 	mov	a,r5
   0C9E 12s00r00           2324 	lcall	__gptrput
   0CA1 A3                 2325 	inc	dptr
   0CA2 EE                 2326 	mov	a,r6
   0CA3 12s00r00           2327 	lcall	__gptrput
   0CA6 A3                 2328 	inc	dptr
   0CA7 EF                 2329 	mov	a,r7
   0CA8 12s00r00           2330 	lcall	__gptrput
                           2331 ;	src/dhry21a.c:352: Proc_3 (&Next_Record->Ptr_Comp);
   0CAB 8A 82              2332 	mov	dpl,r2
   0CAD 8B 83              2333 	mov	dph,r3
   0CAF 8C F0              2334 	mov	b,r4
   0CB1 C0 04              2335 	push	ar4
   0CB3 C0 03              2336 	push	ar3
   0CB5 C0 02              2337 	push	ar2
   0CB7 12s0Er35           2338 	lcall	_Proc_3
   0CBA D0 02              2339 	pop	ar2
   0CBC D0 03              2340 	pop	ar3
   0CBE D0 04              2341 	pop	ar4
                           2342 ;	src/dhry21a.c:355: if (Next_Record->Discr == Ident_1)
   0CC0 74 03              2343 	mov	a,#0x03
   0CC2 2A                 2344 	add	a,r2
   0CC3 FD                 2345 	mov	r5,a
   0CC4 E4                 2346 	clr	a
   0CC5 3B                 2347 	addc	a,r3
   0CC6 FE                 2348 	mov	r6,a
   0CC7 8C 07              2349 	mov	ar7,r4
   0CC9 8D 82              2350 	mov	dpl,r5
   0CCB 8E 83              2351 	mov	dph,r6
   0CCD 8F F0              2352 	mov	b,r7
   0CCF 12s00r00           2353 	lcall	__gptrget
   0CD2 60 03              2354 	jz	00109$
   0CD4 02s0Dr92           2355 	ljmp	00102$
   0CD7                    2356 00109$:
                           2357 ;	src/dhry21a.c:358: Next_Record->variant.var_1.Int_Comp = 6;
   0CD7 74 04              2358 	mov	a,#0x04
   0CD9 2A                 2359 	add	a,r2
   0CDA F5*0A              2360 	mov	_Proc_1_sloc2_1_0,a
   0CDC E4                 2361 	clr	a
   0CDD 3B                 2362 	addc	a,r3
   0CDE F5*0B              2363 	mov	(_Proc_1_sloc2_1_0 + 1),a
   0CE0 8C*0C              2364 	mov	(_Proc_1_sloc2_1_0 + 2),r4
   0CE2 74 01              2365 	mov	a,#0x01
   0CE4 25*0A              2366 	add	a,_Proc_1_sloc2_1_0
   0CE6 F8                 2367 	mov	r0,a
   0CE7 E4                 2368 	clr	a
   0CE8 35*0B              2369 	addc	a,(_Proc_1_sloc2_1_0 + 1)
   0CEA F9                 2370 	mov	r1,a
   0CEB AF*0C              2371 	mov	r7,(_Proc_1_sloc2_1_0 + 2)
   0CED 88 82              2372 	mov	dpl,r0
   0CEF 89 83              2373 	mov	dph,r1
   0CF1 8F F0              2374 	mov	b,r7
   0CF3 74 06              2375 	mov	a,#0x06
   0CF5 12s00r00           2376 	lcall	__gptrput
   0CF8 A3                 2377 	inc	dptr
   0CF9 E4                 2378 	clr	a
   0CFA 12s00r00           2379 	lcall	__gptrput
                           2380 ;	src/dhry21a.c:359: Proc_6 (Ptr_Val_Par->variant.var_1.Enum_Comp, 
   0CFD 85*07 82           2381 	mov	dpl,_Proc_1_sloc1_1_0
   0D00 85*08 83           2382 	mov	dph,(_Proc_1_sloc1_1_0 + 1)
   0D03 85*09 F0           2383 	mov	b,(_Proc_1_sloc1_1_0 + 2)
   0D06 12s00r00           2384 	lcall	__gptrget
   0D09 FF                 2385 	mov	r7,a
                           2386 ;	src/dhry21a.c:360: &Next_Record->variant.var_1.Enum_Comp);
   0D0A 90s00r00           2387 	mov	dptr,#_Proc_6_PARM_2
   0D0D E5*0A              2388 	mov	a,_Proc_1_sloc2_1_0
   0D0F F0                 2389 	movx	@dptr,a
   0D10 A3                 2390 	inc	dptr
   0D11 E5*0B              2391 	mov	a,(_Proc_1_sloc2_1_0 + 1)
   0D13 F0                 2392 	movx	@dptr,a
   0D14 A3                 2393 	inc	dptr
   0D15 E5*0C              2394 	mov	a,(_Proc_1_sloc2_1_0 + 2)
   0D17 F0                 2395 	movx	@dptr,a
   0D18 8F 82              2396 	mov	dpl,r7
   0D1A C0 04              2397 	push	ar4
   0D1C C0 03              2398 	push	ar3
   0D1E C0 02              2399 	push	ar2
   0D20 12s00r00           2400 	lcall	_Proc_6
   0D23 D0 02              2401 	pop	ar2
   0D25 D0 03              2402 	pop	ar3
   0D27 D0 04              2403 	pop	ar4
                           2404 ;	src/dhry21a.c:361: Next_Record->Ptr_Comp = Ptr_Glob->Ptr_Comp;
   0D29 90s00r00           2405 	mov	dptr,#_Ptr_Glob
   0D2C E0                 2406 	movx	a,@dptr
   0D2D FD                 2407 	mov	r5,a
   0D2E A3                 2408 	inc	dptr
   0D2F E0                 2409 	movx	a,@dptr
   0D30 FE                 2410 	mov	r6,a
   0D31 A3                 2411 	inc	dptr
   0D32 E0                 2412 	movx	a,@dptr
   0D33 FF                 2413 	mov	r7,a
   0D34 8D 82              2414 	mov	dpl,r5
   0D36 8E 83              2415 	mov	dph,r6
   0D38 8F F0              2416 	mov	b,r7
   0D3A 12s00r00           2417 	lcall	__gptrget
   0D3D FD                 2418 	mov	r5,a
   0D3E A3                 2419 	inc	dptr
   0D3F 12s00r00           2420 	lcall	__gptrget
   0D42 FE                 2421 	mov	r6,a
   0D43 A3                 2422 	inc	dptr
   0D44 12s00r00           2423 	lcall	__gptrget
   0D47 FF                 2424 	mov	r7,a
   0D48 8A 82              2425 	mov	dpl,r2
   0D4A 8B 83              2426 	mov	dph,r3
   0D4C 8C F0              2427 	mov	b,r4
   0D4E ED                 2428 	mov	a,r5
   0D4F 12s00r00           2429 	lcall	__gptrput
   0D52 A3                 2430 	inc	dptr
   0D53 EE                 2431 	mov	a,r6
   0D54 12s00r00           2432 	lcall	__gptrput
   0D57 A3                 2433 	inc	dptr
   0D58 EF                 2434 	mov	a,r7
   0D59 12s00r00           2435 	lcall	__gptrput
                           2436 ;	src/dhry21a.c:362: Proc_7 (Next_Record->variant.var_1.Int_Comp, 10, 
   0D5C 74 04              2437 	mov	a,#0x04
   0D5E 2A                 2438 	add	a,r2
   0D5F FA                 2439 	mov	r2,a
   0D60 E4                 2440 	clr	a
   0D61 3B                 2441 	addc	a,r3
   0D62 FB                 2442 	mov	r3,a
   0D63 0A                 2443 	inc	r2
   0D64 BA 00 01           2444 	cjne	r2,#0x00,00110$
   0D67 0B                 2445 	inc	r3
   0D68                    2446 00110$:
   0D68 8A 82              2447 	mov	dpl,r2
   0D6A 8B 83              2448 	mov	dph,r3
   0D6C 8C F0              2449 	mov	b,r4
   0D6E 12s00r00           2450 	lcall	__gptrget
   0D71 FE                 2451 	mov	r6,a
   0D72 A3                 2452 	inc	dptr
   0D73 12s00r00           2453 	lcall	__gptrget
   0D76 FF                 2454 	mov	r7,a
                           2455 ;	src/dhry21a.c:363: &Next_Record->variant.var_1.Int_Comp);
   0D77 90s00r00           2456 	mov	dptr,#_Proc_7_PARM_2
   0D7A 74 0A              2457 	mov	a,#0x0A
   0D7C F0                 2458 	movx	@dptr,a
   0D7D A3                 2459 	inc	dptr
   0D7E E4                 2460 	clr	a
   0D7F F0                 2461 	movx	@dptr,a
   0D80 90s00r00           2462 	mov	dptr,#_Proc_7_PARM_3
   0D83 EA                 2463 	mov	a,r2
   0D84 F0                 2464 	movx	@dptr,a
   0D85 A3                 2465 	inc	dptr
   0D86 EB                 2466 	mov	a,r3
   0D87 F0                 2467 	movx	@dptr,a
   0D88 A3                 2468 	inc	dptr
   0D89 EC                 2469 	mov	a,r4
   0D8A F0                 2470 	movx	@dptr,a
   0D8B 8E 82              2471 	mov	dpl,r6
   0D8D 8F 83              2472 	mov	dph,r7
   0D8F 02s00r00           2473 	ljmp	_Proc_7
   0D92                    2474 00102$:
                           2475 ;	src/dhry21a.c:366: structassign (*Ptr_Val_Par, *Ptr_Val_Par->Ptr_Comp);
   0D92 AD*04              2476 	mov	r5,_Proc_1_sloc0_1_0
   0D94 AE*05              2477 	mov	r6,(_Proc_1_sloc0_1_0 + 1)
   0D96 AF*06              2478 	mov	r7,(_Proc_1_sloc0_1_0 + 2)
   0D98 85*04 82           2479 	mov	dpl,_Proc_1_sloc0_1_0
   0D9B 85*05 83           2480 	mov	dph,(_Proc_1_sloc0_1_0 + 1)
   0D9E 85*06 F0           2481 	mov	b,(_Proc_1_sloc0_1_0 + 2)
   0DA1 12s00r00           2482 	lcall	__gptrget
   0DA4 FA                 2483 	mov	r2,a
   0DA5 A3                 2484 	inc	dptr
   0DA6 12s00r00           2485 	lcall	__gptrget
   0DA9 FB                 2486 	mov	r3,a
   0DAA A3                 2487 	inc	dptr
   0DAB 12s00r00           2488 	lcall	__gptrget
   0DAE FC                 2489 	mov	r4,a
   0DAF 90s00r00           2490 	mov	dptr,#_memcpy_PARM_2
   0DB2 EA                 2491 	mov	a,r2
   0DB3 F0                 2492 	movx	@dptr,a
   0DB4 A3                 2493 	inc	dptr
   0DB5 EB                 2494 	mov	a,r3
   0DB6 F0                 2495 	movx	@dptr,a
   0DB7 A3                 2496 	inc	dptr
   0DB8 EC                 2497 	mov	a,r4
   0DB9 F0                 2498 	movx	@dptr,a
   0DBA 90s00r00           2499 	mov	dptr,#_memcpy_PARM_3
   0DBD 74 26              2500 	mov	a,#0x26
   0DBF F0                 2501 	movx	@dptr,a
   0DC0 A3                 2502 	inc	dptr
   0DC1 E4                 2503 	clr	a
   0DC2 F0                 2504 	movx	@dptr,a
   0DC3 8D 82              2505 	mov	dpl,r5
   0DC5 8E 83              2506 	mov	dph,r6
   0DC7 8F F0              2507 	mov	b,r7
   0DC9 02s00r00           2508 	ljmp	_memcpy
                           2509 ;------------------------------------------------------------
                           2510 ;Allocation info for local variables in function 'Proc_2'
                           2511 ;------------------------------------------------------------
                           2512 ;Int_Par_Ref               Allocated with name '_Proc_2_Int_Par_Ref_1_83'
                           2513 ;Int_Loc                   Allocated with name '_Proc_2_Int_Loc_1_84'
                           2514 ;Enum_Loc                  Allocated with name '_Proc_2_Enum_Loc_1_84'
                           2515 ;------------------------------------------------------------
                           2516 ;	src/dhry21a.c:370: void Proc_2( One_Fifty * Int_Par_Ref )
                           2517 ;	-----------------------------------------
                           2518 ;	 function Proc_2
                           2519 ;	-----------------------------------------
   0DCC                    2520 _Proc_2:
   0DCC AF F0              2521 	mov	r7,b
   0DCE AE 83              2522 	mov	r6,dph
   0DD0 E5 82              2523 	mov	a,dpl
   0DD2 90s05r8C           2524 	mov	dptr,#_Proc_2_Int_Par_Ref_1_83
   0DD5 F0                 2525 	movx	@dptr,a
   0DD6 A3                 2526 	inc	dptr
   0DD7 EE                 2527 	mov	a,r6
   0DD8 F0                 2528 	movx	@dptr,a
   0DD9 A3                 2529 	inc	dptr
   0DDA EF                 2530 	mov	a,r7
   0DDB F0                 2531 	movx	@dptr,a
                           2532 ;	src/dhry21a.c:378: Int_Loc = *Int_Par_Ref + 10;
   0DDC 90s05r8C           2533 	mov	dptr,#_Proc_2_Int_Par_Ref_1_83
   0DDF E0                 2534 	movx	a,@dptr
   0DE0 FD                 2535 	mov	r5,a
   0DE1 A3                 2536 	inc	dptr
   0DE2 E0                 2537 	movx	a,@dptr
   0DE3 FE                 2538 	mov	r6,a
   0DE4 A3                 2539 	inc	dptr
   0DE5 E0                 2540 	movx	a,@dptr
   0DE6 FF                 2541 	mov	r7,a
   0DE7 8D 82              2542 	mov	dpl,r5
   0DE9 8E 83              2543 	mov	dph,r6
   0DEB 8F F0              2544 	mov	b,r7
   0DED 12s00r00           2545 	lcall	__gptrget
   0DF0 FB                 2546 	mov	r3,a
   0DF1 A3                 2547 	inc	dptr
   0DF2 12s00r00           2548 	lcall	__gptrget
   0DF5 FC                 2549 	mov	r4,a
   0DF6 74 0A              2550 	mov	a,#0x0A
   0DF8 2B                 2551 	add	a,r3
   0DF9 FB                 2552 	mov	r3,a
   0DFA E4                 2553 	clr	a
   0DFB 3C                 2554 	addc	a,r4
   0DFC FC                 2555 	mov	r4,a
                           2556 ;	src/dhry21a.c:379: do /* executed once */
   0DFD                    2557 00103$:
                           2558 ;	src/dhry21a.c:380: if (Ch_1_Glob == 'A')
   0DFD 90s00r0A           2559 	mov	dptr,#_Ch_1_Glob
   0E00 E0                 2560 	movx	a,@dptr
   0E01 FA                 2561 	mov	r2,a
   0E02 BA 41 28           2562 	cjne	r2,#0x41,00104$
                           2563 ;	src/dhry21a.c:383: Int_Loc -= 1;
   0E05 1B                 2564 	dec	r3
   0E06 BB FF 01           2565 	cjne	r3,#0xFF,00115$
   0E09 1C                 2566 	dec	r4
   0E0A                    2567 00115$:
                           2568 ;	src/dhry21a.c:384: *Int_Par_Ref = Int_Loc - Int_Glob;
   0E0A 90s00r06           2569 	mov	dptr,#_Int_Glob
   0E0D E0                 2570 	movx	a,@dptr
   0E0E F9                 2571 	mov	r1,a
   0E0F A3                 2572 	inc	dptr
   0E10 E0                 2573 	movx	a,@dptr
   0E11 FA                 2574 	mov	r2,a
   0E12 EB                 2575 	mov	a,r3
   0E13 C3                 2576 	clr	c
   0E14 99                 2577 	subb	a,r1
   0E15 F9                 2578 	mov	r1,a
   0E16 EC                 2579 	mov	a,r4
   0E17 9A                 2580 	subb	a,r2
   0E18 FA                 2581 	mov	r2,a
   0E19 8D 82              2582 	mov	dpl,r5
   0E1B 8E 83              2583 	mov	dph,r6
   0E1D 8F F0              2584 	mov	b,r7
   0E1F E9                 2585 	mov	a,r1
   0E20 12s00r00           2586 	lcall	__gptrput
   0E23 A3                 2587 	inc	dptr
   0E24 EA                 2588 	mov	a,r2
   0E25 12s00r00           2589 	lcall	__gptrput
                           2590 ;	src/dhry21a.c:385: Enum_Loc = Ident_1;
   0E28 90s05r8F           2591 	mov	dptr,#_Proc_2_Enum_Loc_1_84
   0E2B E4                 2592 	clr	a
   0E2C F0                 2593 	movx	@dptr,a
   0E2D                    2594 00104$:
                           2595 ;	src/dhry21a.c:387: while (Enum_Loc != Ident_1); /* true */
   0E2D 90s05r8F           2596 	mov	dptr,#_Proc_2_Enum_Loc_1_84
   0E30 E0                 2597 	movx	a,@dptr
   0E31 FA                 2598 	mov	r2,a
   0E32 70 C9              2599 	jnz	00103$
   0E34 22                 2600 	ret
                           2601 ;------------------------------------------------------------
                           2602 ;Allocation info for local variables in function 'Proc_3'
                           2603 ;------------------------------------------------------------
                           2604 ;Ptr_Ref_Par               Allocated with name '_Proc_3_Ptr_Ref_Par_1_86'
                           2605 ;------------------------------------------------------------
                           2606 ;	src/dhry21a.c:391: void Proc_3( Rec_Pointer * Ptr_Ref_Par )
                           2607 ;	-----------------------------------------
                           2608 ;	 function Proc_3
                           2609 ;	-----------------------------------------
   0E35                    2610 _Proc_3:
   0E35 AF F0              2611 	mov	r7,b
   0E37 AE 83              2612 	mov	r6,dph
   0E39 E5 82              2613 	mov	a,dpl
   0E3B 90s05r90           2614 	mov	dptr,#_Proc_3_Ptr_Ref_Par_1_86
   0E3E F0                 2615 	movx	@dptr,a
   0E3F A3                 2616 	inc	dptr
   0E40 EE                 2617 	mov	a,r6
   0E41 F0                 2618 	movx	@dptr,a
   0E42 A3                 2619 	inc	dptr
   0E43 EF                 2620 	mov	a,r7
   0E44 F0                 2621 	movx	@dptr,a
                           2622 ;	src/dhry21a.c:396: if (Ptr_Glob != Null)
   0E45 90s00r00           2623 	mov	dptr,#_Ptr_Glob
   0E48 E0                 2624 	movx	a,@dptr
   0E49 FD                 2625 	mov	r5,a
   0E4A A3                 2626 	inc	dptr
   0E4B E0                 2627 	movx	a,@dptr
   0E4C FE                 2628 	mov	r6,a
   0E4D A3                 2629 	inc	dptr
   0E4E E0                 2630 	movx	a,@dptr
   0E4F FF                 2631 	mov	r7,a
   0E50 ED                 2632 	mov	a,r5
   0E51 4E                 2633 	orl	a,r6
   0E52 60 33              2634 	jz	00102$
                           2635 ;	src/dhry21a.c:398: *Ptr_Ref_Par = Ptr_Glob->Ptr_Comp;
   0E54 90s05r90           2636 	mov	dptr,#_Proc_3_Ptr_Ref_Par_1_86
   0E57 E0                 2637 	movx	a,@dptr
   0E58 FA                 2638 	mov	r2,a
   0E59 A3                 2639 	inc	dptr
   0E5A E0                 2640 	movx	a,@dptr
   0E5B FB                 2641 	mov	r3,a
   0E5C A3                 2642 	inc	dptr
   0E5D E0                 2643 	movx	a,@dptr
   0E5E FC                 2644 	mov	r4,a
   0E5F 8D 82              2645 	mov	dpl,r5
   0E61 8E 83              2646 	mov	dph,r6
   0E63 8F F0              2647 	mov	b,r7
   0E65 12s00r00           2648 	lcall	__gptrget
   0E68 FD                 2649 	mov	r5,a
   0E69 A3                 2650 	inc	dptr
   0E6A 12s00r00           2651 	lcall	__gptrget
   0E6D FE                 2652 	mov	r6,a
   0E6E A3                 2653 	inc	dptr
   0E6F 12s00r00           2654 	lcall	__gptrget
   0E72 FF                 2655 	mov	r7,a
   0E73 8A 82              2656 	mov	dpl,r2
   0E75 8B 83              2657 	mov	dph,r3
   0E77 8C F0              2658 	mov	b,r4
   0E79 ED                 2659 	mov	a,r5
   0E7A 12s00r00           2660 	lcall	__gptrput
   0E7D A3                 2661 	inc	dptr
   0E7E EE                 2662 	mov	a,r6
   0E7F 12s00r00           2663 	lcall	__gptrput
   0E82 A3                 2664 	inc	dptr
   0E83 EF                 2665 	mov	a,r7
   0E84 12s00r00           2666 	lcall	__gptrput
   0E87                    2667 00102$:
                           2668 ;	src/dhry21a.c:399: Proc_7 (10, Int_Glob, &Ptr_Glob->variant.var_1.Int_Comp);
   0E87 90s00r06           2669 	mov	dptr,#_Int_Glob
   0E8A E0                 2670 	movx	a,@dptr
   0E8B FE                 2671 	mov	r6,a
   0E8C A3                 2672 	inc	dptr
   0E8D E0                 2673 	movx	a,@dptr
   0E8E FF                 2674 	mov	r7,a
   0E8F 90s00r00           2675 	mov	dptr,#_Ptr_Glob
   0E92 E0                 2676 	movx	a,@dptr
   0E93 FB                 2677 	mov	r3,a
   0E94 A3                 2678 	inc	dptr
   0E95 E0                 2679 	movx	a,@dptr
   0E96 FC                 2680 	mov	r4,a
   0E97 A3                 2681 	inc	dptr
   0E98 E0                 2682 	movx	a,@dptr
   0E99 FD                 2683 	mov	r5,a
   0E9A 74 05              2684 	mov	a,#0x05
   0E9C 2B                 2685 	add	a,r3
   0E9D FB                 2686 	mov	r3,a
   0E9E E4                 2687 	clr	a
   0E9F 3C                 2688 	addc	a,r4
   0EA0 FC                 2689 	mov	r4,a
   0EA1 90s00r00           2690 	mov	dptr,#_Proc_7_PARM_2
   0EA4 EE                 2691 	mov	a,r6
   0EA5 F0                 2692 	movx	@dptr,a
   0EA6 A3                 2693 	inc	dptr
   0EA7 EF                 2694 	mov	a,r7
   0EA8 F0                 2695 	movx	@dptr,a
   0EA9 90s00r00           2696 	mov	dptr,#_Proc_7_PARM_3
   0EAC EB                 2697 	mov	a,r3
   0EAD F0                 2698 	movx	@dptr,a
   0EAE A3                 2699 	inc	dptr
   0EAF EC                 2700 	mov	a,r4
   0EB0 F0                 2701 	movx	@dptr,a
   0EB1 A3                 2702 	inc	dptr
   0EB2 ED                 2703 	mov	a,r5
   0EB3 F0                 2704 	movx	@dptr,a
   0EB4 90 00 0A           2705 	mov	dptr,#0x000A
   0EB7 02s00r00           2706 	ljmp	_Proc_7
                           2707 ;------------------------------------------------------------
                           2708 ;Allocation info for local variables in function 'Proc_4'
                           2709 ;------------------------------------------------------------
                           2710 ;Bool_Loc                  Allocated with name '_Proc_4_Bool_Loc_1_89'
                           2711 ;------------------------------------------------------------
                           2712 ;	src/dhry21a.c:403: void Proc_4( void ) /* without parameters */
                           2713 ;	-----------------------------------------
                           2714 ;	 function Proc_4
                           2715 ;	-----------------------------------------
   0EBA                    2716 _Proc_4:
                           2717 ;	src/dhry21a.c:409: Bool_Loc = Ch_1_Glob == 'A';
   0EBA 90s00r0A           2718 	mov	dptr,#_Ch_1_Glob
   0EBD E0                 2719 	movx	a,@dptr
   0EBE FF                 2720 	mov	r7,a
   0EBF E4                 2721 	clr	a
   0EC0 BF 41 01           2722 	cjne	r7,#0x41,00103$
   0EC3 04                 2723 	inc	a
   0EC4                    2724 00103$:
   0EC4 FF                 2725 	mov	r7,a
   0EC5 33                 2726 	rlc	a
   0EC6 95 E0              2727 	subb	a,acc
   0EC8 FE                 2728 	mov	r6,a
                           2729 ;	src/dhry21a.c:410: Bool_Glob = Bool_Loc | Bool_Glob;
   0EC9 90s00r08           2730 	mov	dptr,#_Bool_Glob
   0ECC E0                 2731 	movx	a,@dptr
   0ECD FC                 2732 	mov	r4,a
   0ECE A3                 2733 	inc	dptr
   0ECF E0                 2734 	movx	a,@dptr
   0ED0 FD                 2735 	mov	r5,a
   0ED1 90s00r08           2736 	mov	dptr,#_Bool_Glob
   0ED4 EC                 2737 	mov	a,r4
   0ED5 4F                 2738 	orl	a,r7
   0ED6 F0                 2739 	movx	@dptr,a
   0ED7 ED                 2740 	mov	a,r5
   0ED8 4E                 2741 	orl	a,r6
   0ED9 A3                 2742 	inc	dptr
   0EDA F0                 2743 	movx	@dptr,a
                           2744 ;	src/dhry21a.c:411: Ch_2_Glob = 'B';
   0EDB 90s00r0B           2745 	mov	dptr,#_Ch_2_Glob
   0EDE 74 42              2746 	mov	a,#0x42
   0EE0 F0                 2747 	movx	@dptr,a
   0EE1 22                 2748 	ret
                           2749 ;------------------------------------------------------------
                           2750 ;Allocation info for local variables in function 'Proc_5'
                           2751 ;------------------------------------------------------------
                           2752 ;	src/dhry21a.c:415: void Proc_5( void ) /* without parameters */
                           2753 ;	-----------------------------------------
                           2754 ;	 function Proc_5
                           2755 ;	-----------------------------------------
   0EE2                    2756 _Proc_5:
                           2757 ;	src/dhry21a.c:419: Ch_1_Glob = 'A';
   0EE2 90s00r0A           2758 	mov	dptr,#_Ch_1_Glob
   0EE5 74 41              2759 	mov	a,#0x41
   0EE7 F0                 2760 	movx	@dptr,a
                           2761 ;	src/dhry21a.c:420: Bool_Glob = false;
   0EE8 90s00r08           2762 	mov	dptr,#_Bool_Glob
   0EEB E4                 2763 	clr	a
   0EEC F0                 2764 	movx	@dptr,a
   0EED A3                 2765 	inc	dptr
   0EEE F0                 2766 	movx	@dptr,a
   0EEF 22                 2767 	ret
                           2768 	.area CSEG    (CODE)
                           2769 	.area CONST   (CODE)
   0000                    2770 __str_0:
   0000 64 68 72 79 2E 72  2771 	.ascii "dhry.res"
        65 73
   0008 00                 2772 	.db 0x00
   0009                    2773 __str_1:
   0009 61 2B              2774 	.ascii "a+"
   000B 00                 2775 	.db 0x00
   000C                    2776 __str_2:
   000C 43 61 6E 20 6E 6F  2777 	.ascii "Can not open dhry.res"
        74 20 6F 70 65 6E
        20 64 68 72 79 2E
        72 65 73
   0021 0A                 2778 	.db 0x0A
   0022 0A                 2779 	.db 0x0A
   0023 00                 2780 	.db 0x00
   0024                    2781 __str_3:
   0024 44 48 52 59 53 54  2782 	.ascii "DHRYSTONE PROGRAM, SOME STRING"
        4F 4E 45 20 50 52
        4F 47 52 41 4D 2C
        20 53 4F 4D 45 20
        53 54 52 49 4E 47
   0042 00                 2783 	.db 0x00
   0043                    2784 __str_4:
   0043 44 48 52 59 53 54  2785 	.ascii "DHRYSTONE PROGRAM, 1'ST STRING"
        4F 4E 45 20 50 52
        4F 47 52 41 4D 2C
        20 31 27 53 54 20
        53 54 52 49 4E 47
   0061 00                 2786 	.db 0x00
   0062                    2787 __str_5:
   0062 0A                 2788 	.db 0x0A
   0063 00                 2789 	.db 0x00
   0064                    2790 __str_6:
   0064 44 68 72 79 73 74  2791 	.ascii "Dhrystone Benchmark, Version 2.1 (Language: C)"
        6F 6E 65 20 42 65
        6E 63 68 6D 61 72
        6B 2C 20 56 65 72
        73 69 6F 6E 20 32
        2E 31 20 28 4C 61
        6E 67 75 61 67 65
        3A 20 43 29
   0092 0A                 2792 	.db 0x0A
   0093 00                 2793 	.db 0x00
   0094                    2794 __str_7:
   0094 45 78 65 63 75 74  2795 	.ascii "Execution starts, %d runs through Dhrystone"
        69 6F 6E 20 73 74
        61 72 74 73 2C 20
        25 64 20 72 75 6E
        73 20 74 68 72 6F
        75 67 68 20 44 68
        72 79 73 74 6F 6E
        65
   00BF 0A                 2796 	.db 0x0A
   00C0 00                 2797 	.db 0x00
   00C1                    2798 __str_8:
   00C1 44 48 52 59 53 54  2799 	.ascii "DHRYSTONE PROGRAM, 2'ND STRING"
        4F 4E 45 20 50 52
        4F 47 52 41 4D 2C
        20 32 27 4E 44 20
        53 54 52 49 4E 47
   00DF 00                 2800 	.db 0x00
   00E0                    2801 __str_9:
   00E0 44 48 52 59 53 54  2802 	.ascii "DHRYSTONE PROGRAM, 3'RD STRING"
        4F 4E 45 20 50 52
        4F 47 52 41 4D 2C
        20 33 27 52 44 20
        53 54 52 49 4E 47
   00FE 00                 2803 	.db 0x00
   00FF                    2804 __str_10:
   00FF 45 78 65 63 75 74  2805 	.ascii "Execution ends"
        69 6F 6E 20 65 6E
        64 73
   010D 0A                 2806 	.db 0x0A
   010E 00                 2807 	.db 0x00
   010F                    2808 __str_11:
   010F 46 69 6E 61 6C 20  2809 	.ascii "Final values of the variables used in the benchmark:"
        76 61 6C 75 65 73
        20 6F 66 20 74 68
        65 20 76 61 72 69
        61 62 6C 65 73 20
        75 73 65 64 20 69
        6E 20 74 68 65 20
        62 65 6E 63 68 6D
        61 72 6B 3A
   0143 0A                 2810 	.db 0x0A
   0144 00                 2811 	.db 0x00
   0145                    2812 __str_12:
   0145 49 6E 74 5F 47 6C  2813 	.ascii "Int_Glob:            %d"
        6F 62 3A 20 20 20
        20 20 20 20 20 20
        20 20 20 25 64
   015C 0A                 2814 	.db 0x0A
   015D 00                 2815 	.db 0x00
   015E                    2816 __str_13:
   015E 20 20 20 20 20 20  2817 	.ascii "        should be:   %d"
        20 20 73 68 6F 75
        6C 64 20 62 65 3A
        20 20 20 25 64
   0175 0A                 2818 	.db 0x0A
   0176 00                 2819 	.db 0x00
   0177                    2820 __str_14:
   0177 42 6F 6F 6C 5F 47  2821 	.ascii "Bool_Glob:           %d"
        6C 6F 62 3A 20 20
        20 20 20 20 20 20
        20 20 20 25 64
   018E 0A                 2822 	.db 0x0A
   018F 00                 2823 	.db 0x00
   0190                    2824 __str_15:
   0190 43 68 5F 31 5F 47  2825 	.ascii "Ch_1_Glob:           %c"
        6C 6F 62 3A 20 20
        20 20 20 20 20 20
        20 20 20 25 63
   01A7 0A                 2826 	.db 0x0A
   01A8 00                 2827 	.db 0x00
   01A9                    2828 __str_16:
   01A9 20 20 20 20 20 20  2829 	.ascii "        should be:   %c"
        20 20 73 68 6F 75
        6C 64 20 62 65 3A
        20 20 20 25 63
   01C0 0A                 2830 	.db 0x0A
   01C1 00                 2831 	.db 0x00
   01C2                    2832 __str_17:
   01C2 43 68 5F 32 5F 47  2833 	.ascii "Ch_2_Glob:           %c"
        6C 6F 62 3A 20 20
        20 20 20 20 20 20
        20 20 20 25 63
   01D9 0A                 2834 	.db 0x0A
   01DA 00                 2835 	.db 0x00
   01DB                    2836 __str_18:
   01DB 41 72 72 5F 31 5F  2837 	.ascii "Arr_1_Glob[8]:       %d"
        47 6C 6F 62 5B 38
        5D 3A 20 20 20 20
        20 20 20 25 64
   01F2 0A                 2838 	.db 0x0A
   01F3 00                 2839 	.db 0x00
   01F4                    2840 __str_19:
   01F4 41 72 72 5F 32 5F  2841 	.ascii "Arr_2_Glob[8][7]:    %d"
        47 6C 6F 62 5B 38
        5D 5B 37 5D 3A 20
        20 20 20 25 64
   020B 0A                 2842 	.db 0x0A
   020C 00                 2843 	.db 0x00
   020D                    2844 __str_20:
   020D 20 20 20 20 20 20  2845 	.ascii "        should be:   Number_Of_Runs + 10"
        20 20 73 68 6F 75
        6C 64 20 62 65 3A
        20 20 20 4E 75 6D
        62 65 72 5F 4F 66
        5F 52 75 6E 73 20
        2B 20 31 30
   0235 0A                 2846 	.db 0x0A
   0236 00                 2847 	.db 0x00
   0237                    2848 __str_21:
   0237 50 74 72 5F 47 6C  2849 	.ascii "Ptr_Glob->"
        6F 62 2D 3E
   0241 0A                 2850 	.db 0x0A
   0242 00                 2851 	.db 0x00
   0243                    2852 __str_22:
   0243 20 20 50 74 72 5F  2853 	.ascii "  Ptr_Comp:          %d"
        43 6F 6D 70 3A 20
        20 20 20 20 20 20
        20 20 20 25 64
   025A 0A                 2854 	.db 0x0A
   025B 00                 2855 	.db 0x00
   025C                    2856 __str_23:
   025C 20 20 20 20 20 20  2857 	.ascii "        should be:   (implementation-dependent)"
        20 20 73 68 6F 75
        6C 64 20 62 65 3A
        20 20 20 28 69 6D
        70 6C 65 6D 65 6E
        74 61 74 69 6F 6E
        2D 64 65 70 65 6E
        64 65 6E 74 29
   028B 0A                 2858 	.db 0x0A
   028C 00                 2859 	.db 0x00
   028D                    2860 __str_24:
   028D 20 20 44 69 73 63  2861 	.ascii "  Discr:             %d"
        72 3A 20 20 20 20
        20 20 20 20 20 20
        20 20 20 25 64
   02A4 0A                 2862 	.db 0x0A
   02A5 00                 2863 	.db 0x00
   02A6                    2864 __str_25:
   02A6 20 20 45 6E 75 6D  2865 	.ascii "  Enum_Comp:         %d"
        5F 43 6F 6D 70 3A
        20 20 20 20 20 20
        20 20 20 25 64
   02BD 0A                 2866 	.db 0x0A
   02BE 00                 2867 	.db 0x00
   02BF                    2868 __str_26:
   02BF 20 20 49 6E 74 5F  2869 	.ascii "  Int_Comp:          %d"
        43 6F 6D 70 3A 20
        20 20 20 20 20 20
        20 20 20 25 64
   02D6 0A                 2870 	.db 0x0A
   02D7 00                 2871 	.db 0x00
   02D8                    2872 __str_27:
   02D8 20 20 53 74 72 5F  2873 	.ascii "  Str_Comp:          %s"
        43 6F 6D 70 3A 20
        20 20 20 20 20 20
        20 20 20 25 73
   02EF 0A                 2874 	.db 0x0A
   02F0 00                 2875 	.db 0x00
   02F1                    2876 __str_28:
   02F1 20 20 20 20 20 20  2877 	.ascii "        should be:   DHRYSTONE PROGRAM, SOME STRING"
        20 20 73 68 6F 75
        6C 64 20 62 65 3A
        20 20 20 44 48 52
        59 53 54 4F 4E 45
        20 50 52 4F 47 52
        41 4D 2C 20 53 4F
        4D 45 20 53 54 52
        49 4E 47
   0324 0A                 2878 	.db 0x0A
   0325 00                 2879 	.db 0x00
   0326                    2880 __str_29:
   0326 4E 65 78 74 5F 50  2881 	.ascii "Next_Ptr_Glob->"
        74 72 5F 47 6C 6F
        62 2D 3E
   0335 0A                 2882 	.db 0x0A
   0336 00                 2883 	.db 0x00
   0337                    2884 __str_30:
   0337 20 20 20 20 20 20  2885 	.ascii "        should be:   (implementation-dependent), same as abo"
        20 20 73 68 6F 75
        6C 64 20 62 65 3A
        20 20 20 28 69 6D
        70 6C 65 6D 65 6E
        74 61 74 69 6F 6E
        2D 64 65 70 65 6E
        64 65 6E 74 29 2C
        20 73 61 6D 65 20
        61 73 20 61 62 6F
   0373 76 65              2886 	.ascii "ve"
   0375 0A                 2887 	.db 0x0A
   0376 00                 2888 	.db 0x00
   0377                    2889 __str_31:
   0377 49 6E 74 5F 31 5F  2890 	.ascii "Int_1_Loc:           %d"
        4C 6F 63 3A 20 20
        20 20 20 20 20 20
        20 20 20 25 64
   038E 0A                 2891 	.db 0x0A
   038F 00                 2892 	.db 0x00
   0390                    2893 __str_32:
   0390 49 6E 74 5F 32 5F  2894 	.ascii "Int_2_Loc:           %d"
        4C 6F 63 3A 20 20
        20 20 20 20 20 20
        20 20 20 25 64
   03A7 0A                 2895 	.db 0x0A
   03A8 00                 2896 	.db 0x00
   03A9                    2897 __str_33:
   03A9 49 6E 74 5F 33 5F  2898 	.ascii "Int_3_Loc:           %d"
        4C 6F 63 3A 20 20
        20 20 20 20 20 20
        20 20 20 25 64
   03C0 0A                 2899 	.db 0x0A
   03C1 00                 2900 	.db 0x00
   03C2                    2901 __str_34:
   03C2 45 6E 75 6D 5F 4C  2902 	.ascii "Enum_Loc:            %d"
        6F 63 3A 20 20 20
        20 20 20 20 20 20
        20 20 20 25 64
   03D9 0A                 2903 	.db 0x0A
   03DA 00                 2904 	.db 0x00
   03DB                    2905 __str_35:
   03DB 53 74 72 5F 31 5F  2906 	.ascii "Str_1_Loc:           %s"
        4C 6F 63 3A 20 20
        20 20 20 20 20 20
        20 20 20 25 73
   03F2 0A                 2907 	.db 0x0A
   03F3 00                 2908 	.db 0x00
   03F4                    2909 __str_36:
   03F4 20 20 20 20 20 20  2910 	.ascii "        should be:   DHRYSTONE PROGRAM, 1'ST STRING"
        20 20 73 68 6F 75
        6C 64 20 62 65 3A
        20 20 20 44 48 52
        59 53 54 4F 4E 45
        20 50 52 4F 47 52
        41 4D 2C 20 31 27
        53 54 20 53 54 52
        49 4E 47
   0427 0A                 2911 	.db 0x0A
   0428 00                 2912 	.db 0x00
   0429                    2913 __str_37:
   0429 53 74 72 5F 32 5F  2914 	.ascii "Str_2_Loc:           %s"
        4C 6F 63 3A 20 20
        20 20 20 20 20 20
        20 20 20 25 73
   0440 0A                 2915 	.db 0x0A
   0441 00                 2916 	.db 0x00
   0442                    2917 __str_38:
   0442 20 20 20 20 20 20  2918 	.ascii "        should be:   DHRYSTONE PROGRAM, 2'ND STRING"
        20 20 73 68 6F 75
        6C 64 20 62 65 3A
        20 20 20 44 48 52
        59 53 54 4F 4E 45
        20 50 52 4F 47 52
        41 4D 2C 20 32 27
        4E 44 20 53 54 52
        49 4E 47
   0475 0A                 2919 	.db 0x0A
   0476 00                 2920 	.db 0x00
   0477                    2921 __str_39:
   0477 54 69 6D 65 20 65  2922 	.ascii "Time elapsed:          %lu.%03lu seconds"
        6C 61 70 73 65 64
        3A 20 20 20 20 20
        20 20 20 20 20 25
        6C 75 2E 25 30 33
        6C 75 20 73 65 63
        6F 6E 64 73
   049F 0A                 2923 	.db 0x0A
   04A0 00                 2924 	.db 0x00
   04A1                    2925 __str_40:
   04A1 44 68 72 79 73 74  2926 	.ascii "Dhrystones per second: %d"
        6F 6E 65 73 20 70
        65 72 20 73 65 63
        6F 6E 64 3A 20 25
        64
   04BA 0A                 2927 	.db 0x0A
   04BB 0A                 2928 	.db 0x0A
   04BC 00                 2929 	.db 0x00
   04BD                    2930 __str_41:
   04BD 54 65 73 74 20 66  2931 	.ascii "Test finished."
        69 6E 69 73 68 65
        64 2E
   04CB 0A                 2932 	.db 0x0A
   04CC 0A                 2933 	.db 0x0A
   04CD 00                 2934 	.db 0x00
   04CE                    2935 __str_42:
   04CE 52 65 67 69 73 74  2936 	.ascii "Register option selected."
        65 72 20 6F 70 74
        69 6F 6E 20 73 65
        6C 65 63 74 65 64
        2E
   04E7 00                 2937 	.db 0x00
                           2938 	.area XINIT   (CODE)
   0000                    2939 __xinit__Reg_Define:
   0000 52 65 67 69 73 74  2940 	.ascii "Register option selected."
        65 72 20 6F 70 74
        69 6F 6E 20 73 65
        6C 65 63 74 65 64
        2E
   0019 00                 2941 	.db 0x00
                           2942 	.area CABS    (ABS,CODE)
