                              1 ;--------------------------------------------------------
                              2 ; File Created by SDCC : free open source ANSI-C Compiler
                              3 ; Version 3.3.0 #8604 (Dec 30 2013) (Linux)
                              4 ; This file was generated Thu Dec  7 21:08:14 2017
                              5 ;--------------------------------------------------------
                              6 	.module dhry21a
                              7 	.optsdcc -mmcs51 --model-large
                              8 	
                              9 ;--------------------------------------------------------
                             10 ; Public variables in this module
                             11 ;--------------------------------------------------------
                             12 	.globl _main
                             13 	.globl _soc_get_msecs
                             14 	.globl _soc_init
                             15 	.globl _strcpy
                             16 	.globl _memcpy
                             17 	.globl _exit
                             18 	.globl _fopen
                             19 	.globl _emalloc
                             20 	.globl _Func_2
                             21 	.globl _Func_1
                             22 	.globl _Proc_8
                             23 	.globl _Proc_7
                             24 	.globl _Proc_6
                             25 	.globl _printf
                             26 	.globl _P3_7
                             27 	.globl _P3_6
                             28 	.globl _P3_5
                             29 	.globl _P3_4
                             30 	.globl _P3_3
                             31 	.globl _P3_2
                             32 	.globl _P3_1
                             33 	.globl _P3_0
                             34 	.globl _P2_7
                             35 	.globl _P2_6
                             36 	.globl _P2_5
                             37 	.globl _P2_4
                             38 	.globl _P2_3
                             39 	.globl _P2_2
                             40 	.globl _P2_1
                             41 	.globl _P2_0
                             42 	.globl _P1_7
                             43 	.globl _P1_6
                             44 	.globl _P1_5
                             45 	.globl _P1_4
                             46 	.globl _P1_3
                             47 	.globl _P1_2
                             48 	.globl _P1_1
                             49 	.globl _P1_0
                             50 	.globl _P0_7
                             51 	.globl _P0_6
                             52 	.globl _P0_5
                             53 	.globl _P0_4
                             54 	.globl _P0_3
                             55 	.globl _P0_2
                             56 	.globl _P0_1
                             57 	.globl _P0_0
                             58 	.globl _EIRQ7
                             59 	.globl _EIRQ6
                             60 	.globl _EIRQ5
                             61 	.globl _EIRQ4
                             62 	.globl _EIRQ3
                             63 	.globl _EIRQ2
                             64 	.globl _EIRQ1
                             65 	.globl _EIRQ0
                             66 	.globl _T0CEN
                             67 	.globl _T0ARL
                             68 	.globl _T0IRQ
                             69 	.globl _RXRDY
                             70 	.globl _TXRDY
                             71 	.globl _RXIRQ
                             72 	.globl _TXIRQ
                             73 	.globl _EEX
                             74 	.globl _ET0
                             75 	.globl _ES
                             76 	.globl _EA
                             77 	.globl _P3
                             78 	.globl _P2
                             79 	.globl _P1
                             80 	.globl _P0
                             81 	.globl _EXTINT
                             82 	.globl _T0CH
                             83 	.globl _T0CL
                             84 	.globl _T0H
                             85 	.globl _T0L
                             86 	.globl _TCON
                             87 	.globl _SBPH
                             88 	.globl _SBPL
                             89 	.globl _SBUF
                             90 	.globl _SCON
                             91 	.globl _IE
                             92 	.globl _Reg_Define
                             93 	.globl _Vax_Mips
                             94 	.globl _Dhrystones_Per_Second
                             95 	.globl _Microseconds
                             96 	.globl _User_Time
                             97 	.globl _End_Time
                             98 	.globl _Begin_Time
                             99 	.globl _dps
                            100 	.globl _msecs_end
                            101 	.globl _msecs_start
                            102 	.globl _Arr_2_Glob
                            103 	.globl _Arr_1_Glob
                            104 	.globl _Ch_2_Glob
                            105 	.globl _Ch_1_Glob
                            106 	.globl _Bool_Glob
                            107 	.globl _Int_Glob
                            108 	.globl _Next_Ptr_Glob
                            109 	.globl _Ptr_Glob
                            110 	.globl _Proc_1
                            111 	.globl _Proc_2
                            112 	.globl _Proc_3
                            113 	.globl _Proc_4
                            114 	.globl _Proc_5
                            115 ;--------------------------------------------------------
                            116 ; special function registers
                            117 ;--------------------------------------------------------
                            118 	.area RSEG    (ABS,DATA)
   0000                     119 	.org 0x0000
                     00A8   120 _IE	=	0x00a8
                     0098   121 _SCON	=	0x0098
                     0099   122 _SBUF	=	0x0099
                     009A   123 _SBPL	=	0x009a
                     009B   124 _SBPH	=	0x009b
                     0088   125 _TCON	=	0x0088
                     008C   126 _T0L	=	0x008c
                     008D   127 _T0H	=	0x008d
                     008E   128 _T0CL	=	0x008e
                     008F   129 _T0CH	=	0x008f
                     00C0   130 _EXTINT	=	0x00c0
                     0080   131 _P0	=	0x0080
                     0090   132 _P1	=	0x0090
                     00A0   133 _P2	=	0x00a0
                     00B0   134 _P3	=	0x00b0
                            135 ;--------------------------------------------------------
                            136 ; special function bits
                            137 ;--------------------------------------------------------
                            138 	.area RSEG    (ABS,DATA)
   0000                     139 	.org 0x0000
                     00AF   140 _EA	=	0x00af
                     00AC   141 _ES	=	0x00ac
                     00A9   142 _ET0	=	0x00a9
                     00A8   143 _EEX	=	0x00a8
                     009C   144 _TXIRQ	=	0x009c
                     009D   145 _RXIRQ	=	0x009d
                     009C   146 _TXRDY	=	0x009c
                     009D   147 _RXRDY	=	0x009d
                     0088   148 _T0IRQ	=	0x0088
                     008C   149 _T0ARL	=	0x008c
                     008D   150 _T0CEN	=	0x008d
                     00C0   151 _EIRQ0	=	0x00c0
                     00C1   152 _EIRQ1	=	0x00c1
                     00C2   153 _EIRQ2	=	0x00c2
                     00C3   154 _EIRQ3	=	0x00c3
                     00C4   155 _EIRQ4	=	0x00c4
                     00C5   156 _EIRQ5	=	0x00c5
                     00C6   157 _EIRQ6	=	0x00c6
                     00C7   158 _EIRQ7	=	0x00c7
                     0080   159 _P0_0	=	0x0080
                     0081   160 _P0_1	=	0x0081
                     0082   161 _P0_2	=	0x0082
                     0083   162 _P0_3	=	0x0083
                     0084   163 _P0_4	=	0x0084
                     0085   164 _P0_5	=	0x0085
                     0086   165 _P0_6	=	0x0086
                     0087   166 _P0_7	=	0x0087
                     0090   167 _P1_0	=	0x0090
                     0091   168 _P1_1	=	0x0091
                     0092   169 _P1_2	=	0x0092
                     0093   170 _P1_3	=	0x0093
                     0094   171 _P1_4	=	0x0094
                     0095   172 _P1_5	=	0x0095
                     0096   173 _P1_6	=	0x0096
                     0097   174 _P1_7	=	0x0097
                     00A0   175 _P2_0	=	0x00a0
                     00A1   176 _P2_1	=	0x00a1
                     00A2   177 _P2_2	=	0x00a2
                     00A3   178 _P2_3	=	0x00a3
                     00A4   179 _P2_4	=	0x00a4
                     00A5   180 _P2_5	=	0x00a5
                     00A6   181 _P2_6	=	0x00a6
                     00A7   182 _P2_7	=	0x00a7
                     00B0   183 _P3_0	=	0x00b0
                     00B1   184 _P3_1	=	0x00b1
                     00B2   185 _P3_2	=	0x00b2
                     00B3   186 _P3_3	=	0x00b3
                     00B4   187 _P3_4	=	0x00b4
                     00B5   188 _P3_5	=	0x00b5
                     00B6   189 _P3_6	=	0x00b6
                     00B7   190 _P3_7	=	0x00b7
                            191 ;--------------------------------------------------------
                            192 ; overlayable register banks
                            193 ;--------------------------------------------------------
                            194 	.area REG_BANK_0	(REL,OVR,DATA)
   0000                     195 	.ds 8
                            196 ;--------------------------------------------------------
                            197 ; internal ram data
                            198 ;--------------------------------------------------------
                            199 	.area DSEG    (DATA)
   0000                     200 _main_sloc0_1_0:
   0000                     201 	.ds 4
   0004                     202 _Proc_1_sloc0_1_0:
   0004                     203 	.ds 3
   0007                     204 _Proc_1_sloc1_1_0:
   0007                     205 	.ds 3
   000A                     206 _Proc_1_sloc2_1_0:
   000A                     207 	.ds 3
                            208 ;--------------------------------------------------------
                            209 ; overlayable items in internal ram 
                            210 ;--------------------------------------------------------
                            211 ;--------------------------------------------------------
                            212 ; Stack segment in internal ram 
                            213 ;--------------------------------------------------------
                            214 	.area	SSEG	(DATA)
   0000                     215 __start__stack:
   0000                     216 	.ds	1
                            217 
                            218 ;--------------------------------------------------------
                            219 ; indirectly addressable internal ram data
                            220 ;--------------------------------------------------------
                            221 	.area ISEG    (DATA)
                            222 ;--------------------------------------------------------
                            223 ; absolute internal ram data
                            224 ;--------------------------------------------------------
                            225 	.area IABS    (ABS,DATA)
                            226 	.area IABS    (ABS,DATA)
                            227 ;--------------------------------------------------------
                            228 ; bit data
                            229 ;--------------------------------------------------------
                            230 	.area BSEG    (BIT)
                            231 ;--------------------------------------------------------
                            232 ; paged external ram data
                            233 ;--------------------------------------------------------
                            234 	.area PSEG    (PAG,XDATA)
                            235 ;--------------------------------------------------------
                            236 ; external ram data
                            237 ;--------------------------------------------------------
                            238 	.area XSEG    (XDATA)
   0000                     239 _Ptr_Glob::
   0000                     240 	.ds 3
   0003                     241 _Next_Ptr_Glob::
   0003                     242 	.ds 3
   0006                     243 _Int_Glob::
   0006                     244 	.ds 2
   0008                     245 _Bool_Glob::
   0008                     246 	.ds 2
   000A                     247 _Ch_1_Glob::
   000A                     248 	.ds 1
   000B                     249 _Ch_2_Glob::
   000B                     250 	.ds 1
   000C                     251 _Arr_1_Glob::
   000C                     252 	.ds 50
   003E                     253 _Arr_2_Glob::
   003E                     254 	.ds 1250
   0520                     255 _msecs_start::
   0520                     256 	.ds 4
   0524                     257 _msecs_end::
   0524                     258 	.ds 4
   0528                     259 _dps::
   0528                     260 	.ds 4
   052C                     261 _Begin_Time::
   052C                     262 	.ds 4
   0530                     263 _End_Time::
   0530                     264 	.ds 4
   0534                     265 _User_Time::
   0534                     266 	.ds 4
   0538                     267 _Microseconds::
   0538                     268 	.ds 4
   053C                     269 _Dhrystones_Per_Second::
   053C                     270 	.ds 4
   0540                     271 _Vax_Mips::
   0540                     272 	.ds 4
   0544                     273 _main_Int_1_Loc_1_73:
   0544                     274 	.ds 2
   0546                     275 _main_Int_2_Loc_1_73:
   0546                     276 	.ds 2
   0548                     277 _main_Int_3_Loc_1_73:
   0548                     278 	.ds 2
   054A                     279 _main_Enum_Loc_1_73:
   054A                     280 	.ds 1
   054B                     281 _main_Str_1_Loc_1_73:
   054B                     282 	.ds 31
   056A                     283 _main_Str_2_Loc_1_73:
   056A                     284 	.ds 31
   0589                     285 _Proc_1_Ptr_Val_Par_1_80:
   0589                     286 	.ds 3
   058C                     287 _Proc_2_Int_Par_Ref_1_83:
   058C                     288 	.ds 3
   058F                     289 _Proc_2_Enum_Loc_1_84:
   058F                     290 	.ds 1
   0590                     291 _Proc_3_Ptr_Ref_Par_1_86:
   0590                     292 	.ds 3
                            293 ;--------------------------------------------------------
                            294 ; absolute external ram data
                            295 ;--------------------------------------------------------
                            296 	.area XABS    (ABS,XDATA)
                            297 ;--------------------------------------------------------
                            298 ; external initialized ram data
                            299 ;--------------------------------------------------------
                            300 	.area XISEG   (XDATA)
   0000                     301 _Reg_Define::
   0000                     302 	.ds 26
                            303 	.area HOME    (CODE)
                            304 	.area GSINIT0 (CODE)
                            305 	.area GSINIT1 (CODE)
                            306 	.area GSINIT2 (CODE)
                            307 	.area GSINIT3 (CODE)
                            308 	.area GSINIT4 (CODE)
                            309 	.area GSINIT5 (CODE)
                            310 	.area GSINIT  (CODE)
                            311 	.area GSFINAL (CODE)
                            312 	.area CSEG    (CODE)
                            313 ;--------------------------------------------------------
                            314 ; interrupt vector 
                            315 ;--------------------------------------------------------
                            316 	.area HOME    (CODE)
   0000                     317 __interrupt_vect:
   0000 02r00r00      [24]  318 	ljmp	__sdcc_gsinit_startup
   0003 32            [24]  319 	reti
   0004                     320 	.ds	7
   000B 02r00r00      [24]  321 	ljmp	_timer0_isr
                            322 ;--------------------------------------------------------
                            323 ; global & static initialisations
                            324 ;--------------------------------------------------------
                            325 	.area HOME    (CODE)
                            326 	.area GSINIT  (CODE)
                            327 	.area GSFINAL (CODE)
                            328 	.area GSINIT  (CODE)
                            329 	.globl __sdcc_gsinit_startup
                            330 	.globl __sdcc_program_startup
                            331 	.globl __start__stack
                            332 	.globl __mcs51_genXINIT
                            333 	.globl __mcs51_genXRAMCLEAR
                            334 	.globl __mcs51_genRAMCLEAR
                            335 	.area GSFINAL (CODE)
   0000 02r00r0E      [24]  336 	ljmp	__sdcc_program_startup
                            337 ;--------------------------------------------------------
                            338 ; Home
                            339 ;--------------------------------------------------------
                            340 	.area HOME    (CODE)
                            341 	.area HOME    (CODE)
   000E                     342 __sdcc_program_startup:
   000E 02r00r00      [24]  343 	ljmp	_main
                            344 ;	return from main will return to caller
                            345 ;--------------------------------------------------------
                            346 ; code
                            347 ;--------------------------------------------------------
                            348 	.area CSEG    (CODE)
                            349 ;------------------------------------------------------------
                            350 ;Allocation info for local variables in function 'main'
                            351 ;------------------------------------------------------------
                            352 ;sloc0                     Allocated with name '_main_sloc0_1_0'
                            353 ;Int_1_Loc                 Allocated with name '_main_Int_1_Loc_1_73'
                            354 ;Int_2_Loc                 Allocated with name '_main_Int_2_Loc_1_73'
                            355 ;Int_3_Loc                 Allocated with name '_main_Int_3_Loc_1_73'
                            356 ;Ch_Index                  Allocated with name '_main_Ch_Index_1_73'
                            357 ;Enum_Loc                  Allocated with name '_main_Enum_Loc_1_73'
                            358 ;Str_1_Loc                 Allocated with name '_main_Str_1_Loc_1_73'
                            359 ;Str_2_Loc                 Allocated with name '_main_Str_2_Loc_1_73'
                            360 ;Run_Index                 Allocated with name '_main_Run_Index_1_73'
                            361 ;Number_Of_Runs            Allocated with name '_main_Number_Of_Runs_1_73'
                            362 ;Ap                        Allocated with name '_main_Ap_1_73'
                            363 ;------------------------------------------------------------
                            364 ;	src/dhry21a.c:80: int main( void )
                            365 ;	-----------------------------------------
                            366 ;	 function main
                            367 ;	-----------------------------------------
   0000                     368 _main:
                     0007   369 	ar7 = 0x07
                     0006   370 	ar6 = 0x06
                     0005   371 	ar5 = 0x05
                     0004   372 	ar4 = 0x04
                     0003   373 	ar3 = 0x03
                     0002   374 	ar2 = 0x02
                     0001   375 	ar1 = 0x01
                     0000   376 	ar0 = 0x00
                            377 ;	src/dhry21a.c:103: soc_init();
   0000 12r00r00      [24]  378 	lcall	_soc_init
                            379 ;	src/dhry21a.c:107: if ((Ap = fopen("dhry.res","a+")) == NULL)
   0003 90r00r00      [24]  380 	mov	dptr,#_fopen_PARM_2
   0006 74r09         [12]  381 	mov	a,#__str_1
   0008 F0            [24]  382 	movx	@dptr,a
   0009 74s00         [12]  383 	mov	a,#(__str_1 >> 8)
   000B A3            [24]  384 	inc	dptr
   000C F0            [24]  385 	movx	@dptr,a
   000D 74 80         [12]  386 	mov	a,#0x80
   000F A3            [24]  387 	inc	dptr
   0010 F0            [24]  388 	movx	@dptr,a
   0011 90r00r00      [24]  389 	mov	dptr,#__str_0
   0014 75 F0 80      [24]  390 	mov	b,#0x80
   0017 12r00r00      [24]  391 	lcall	_fopen
   001A AD 82         [24]  392 	mov	r5,dpl
   001C AE 83         [24]  393 	mov	r6,dph
   001E AF F0         [24]  394 	mov	r7,b
   0020 ED            [12]  395 	mov	a,r5
   0021 4E            [12]  396 	orl	a,r6
   0022 70 1B         [24]  397 	jnz	00102$
                            398 ;	src/dhry21a.c:109: printf("Can not open dhry.res\n\n");
   0024 74r0C         [12]  399 	mov	a,#__str_2
   0026 C0 E0         [24]  400 	push	acc
   0028 74s00         [12]  401 	mov	a,#(__str_2 >> 8)
   002A C0 E0         [24]  402 	push	acc
   002C 74 80         [12]  403 	mov	a,#0x80
   002E C0 E0         [24]  404 	push	acc
   0030 12r00r00      [24]  405 	lcall	_printf
   0033 15 81         [12]  406 	dec	sp
   0035 15 81         [12]  407 	dec	sp
   0037 15 81         [12]  408 	dec	sp
                            409 ;	src/dhry21a.c:110: exit(1);
   0039 90 00 01      [24]  410 	mov	dptr,#0x0001
   003C 12r00r00      [24]  411 	lcall	_exit
   003F                     412 00102$:
                            413 ;	src/dhry21a.c:113: Next_Ptr_Glob = (Rec_Pointer)emalloc (sizeof (Rec_Type));
   003F 90 00 26      [24]  414 	mov	dptr,#0x0026
   0042 12r00r00      [24]  415 	lcall	_emalloc
   0045 AD 82         [24]  416 	mov	r5,dpl
   0047 AE 83         [24]  417 	mov	r6,dph
   0049 AF F0         [24]  418 	mov	r7,b
   004B 90r00r03      [24]  419 	mov	dptr,#_Next_Ptr_Glob
   004E ED            [12]  420 	mov	a,r5
   004F F0            [24]  421 	movx	@dptr,a
   0050 EE            [12]  422 	mov	a,r6
   0051 A3            [24]  423 	inc	dptr
   0052 F0            [24]  424 	movx	@dptr,a
   0053 EF            [12]  425 	mov	a,r7
   0054 A3            [24]  426 	inc	dptr
   0055 F0            [24]  427 	movx	@dptr,a
                            428 ;	src/dhry21a.c:114: Ptr_Glob = (Rec_Pointer)emalloc (sizeof (Rec_Type));
   0056 90 00 26      [24]  429 	mov	dptr,#0x0026
   0059 12r00r00      [24]  430 	lcall	_emalloc
   005C AD 82         [24]  431 	mov	r5,dpl
   005E AE 83         [24]  432 	mov	r6,dph
   0060 AF F0         [24]  433 	mov	r7,b
   0062 90r00r00      [24]  434 	mov	dptr,#_Ptr_Glob
   0065 ED            [12]  435 	mov	a,r5
   0066 F0            [24]  436 	movx	@dptr,a
   0067 EE            [12]  437 	mov	a,r6
   0068 A3            [24]  438 	inc	dptr
   0069 F0            [24]  439 	movx	@dptr,a
   006A EF            [12]  440 	mov	a,r7
   006B A3            [24]  441 	inc	dptr
   006C F0            [24]  442 	movx	@dptr,a
                            443 ;	src/dhry21a.c:116: Ptr_Glob->Ptr_Comp                    = Next_Ptr_Glob;
   006D 90r00r03      [24]  444 	mov	dptr,#_Next_Ptr_Glob
   0070 E0            [24]  445 	movx	a,@dptr
   0071 FA            [12]  446 	mov	r2,a
   0072 A3            [24]  447 	inc	dptr
   0073 E0            [24]  448 	movx	a,@dptr
   0074 FB            [12]  449 	mov	r3,a
   0075 A3            [24]  450 	inc	dptr
   0076 E0            [24]  451 	movx	a,@dptr
   0077 FC            [12]  452 	mov	r4,a
   0078 8D 82         [24]  453 	mov	dpl,r5
   007A 8E 83         [24]  454 	mov	dph,r6
   007C 8F F0         [24]  455 	mov	b,r7
   007E EA            [12]  456 	mov	a,r2
   007F 12r00r00      [24]  457 	lcall	__gptrput
   0082 A3            [24]  458 	inc	dptr
   0083 EB            [12]  459 	mov	a,r3
   0084 12r00r00      [24]  460 	lcall	__gptrput
   0087 A3            [24]  461 	inc	dptr
   0088 EC            [12]  462 	mov	a,r4
   0089 12r00r00      [24]  463 	lcall	__gptrput
                            464 ;	src/dhry21a.c:117: Ptr_Glob->Discr                       = Ident_1;
   008C 74 03         [12]  465 	mov	a,#0x03
   008E 2D            [12]  466 	add	a,r5
   008F FA            [12]  467 	mov	r2,a
   0090 E4            [12]  468 	clr	a
   0091 3E            [12]  469 	addc	a,r6
   0092 FB            [12]  470 	mov	r3,a
   0093 8F 04         [24]  471 	mov	ar4,r7
   0095 8A 82         [24]  472 	mov	dpl,r2
   0097 8B 83         [24]  473 	mov	dph,r3
   0099 8C F0         [24]  474 	mov	b,r4
   009B E4            [12]  475 	clr	a
   009C 12r00r00      [24]  476 	lcall	__gptrput
                            477 ;	src/dhry21a.c:118: Ptr_Glob->variant.var_1.Enum_Comp     = Ident_3;
   009F 74 04         [12]  478 	mov	a,#0x04
   00A1 2D            [12]  479 	add	a,r5
   00A2 FA            [12]  480 	mov	r2,a
   00A3 E4            [12]  481 	clr	a
   00A4 3E            [12]  482 	addc	a,r6
   00A5 FB            [12]  483 	mov	r3,a
   00A6 8F 04         [24]  484 	mov	ar4,r7
   00A8 8A 82         [24]  485 	mov	dpl,r2
   00AA 8B 83         [24]  486 	mov	dph,r3
   00AC 8C F0         [24]  487 	mov	b,r4
   00AE 74 02         [12]  488 	mov	a,#0x02
   00B0 12r00r00      [24]  489 	lcall	__gptrput
                            490 ;	src/dhry21a.c:119: Ptr_Glob->variant.var_1.Int_Comp      = 40;
   00B3 74 05         [12]  491 	mov	a,#0x05
   00B5 2D            [12]  492 	add	a,r5
   00B6 FA            [12]  493 	mov	r2,a
   00B7 E4            [12]  494 	clr	a
   00B8 3E            [12]  495 	addc	a,r6
   00B9 FB            [12]  496 	mov	r3,a
   00BA 8F 04         [24]  497 	mov	ar4,r7
   00BC 8A 82         [24]  498 	mov	dpl,r2
   00BE 8B 83         [24]  499 	mov	dph,r3
   00C0 8C F0         [24]  500 	mov	b,r4
   00C2 74 28         [12]  501 	mov	a,#0x28
   00C4 12r00r00      [24]  502 	lcall	__gptrput
   00C7 A3            [24]  503 	inc	dptr
   00C8 E4            [12]  504 	clr	a
   00C9 12r00r00      [24]  505 	lcall	__gptrput
                            506 ;	src/dhry21a.c:120: strcpy (Ptr_Glob->variant.var_1.Str_Comp, 
   00CC 74 07         [12]  507 	mov	a,#0x07
   00CE 2D            [12]  508 	add	a,r5
   00CF FD            [12]  509 	mov	r5,a
   00D0 E4            [12]  510 	clr	a
   00D1 3E            [12]  511 	addc	a,r6
   00D2 FE            [12]  512 	mov	r6,a
                            513 ;	src/dhry21a.c:121: "DHRYSTONE PROGRAM, SOME STRING");
   00D3 90r00r00      [24]  514 	mov	dptr,#_strcpy_PARM_2
   00D6 74r24         [12]  515 	mov	a,#__str_3
   00D8 F0            [24]  516 	movx	@dptr,a
   00D9 74s00         [12]  517 	mov	a,#(__str_3 >> 8)
   00DB A3            [24]  518 	inc	dptr
   00DC F0            [24]  519 	movx	@dptr,a
   00DD 74 80         [12]  520 	mov	a,#0x80
   00DF A3            [24]  521 	inc	dptr
   00E0 F0            [24]  522 	movx	@dptr,a
   00E1 8D 82         [24]  523 	mov	dpl,r5
   00E3 8E 83         [24]  524 	mov	dph,r6
   00E5 8F F0         [24]  525 	mov	b,r7
   00E7 12r00r00      [24]  526 	lcall	_strcpy
                            527 ;	src/dhry21a.c:122: strcpy (Str_1_Loc, "DHRYSTONE PROGRAM, 1'ST STRING");
   00EA 90r00r00      [24]  528 	mov	dptr,#_strcpy_PARM_2
   00ED 74r43         [12]  529 	mov	a,#__str_4
   00EF F0            [24]  530 	movx	@dptr,a
   00F0 74s00         [12]  531 	mov	a,#(__str_4 >> 8)
   00F2 A3            [24]  532 	inc	dptr
   00F3 F0            [24]  533 	movx	@dptr,a
   00F4 74 80         [12]  534 	mov	a,#0x80
   00F6 A3            [24]  535 	inc	dptr
   00F7 F0            [24]  536 	movx	@dptr,a
   00F8 90r05r4B      [24]  537 	mov	dptr,#_main_Str_1_Loc_1_73
   00FB 75 F0 00      [24]  538 	mov	b,#0x00
   00FE 12r00r00      [24]  539 	lcall	_strcpy
                            540 ;	src/dhry21a.c:124: Arr_2_Glob [8][7] = 10;
   0101 90r01rDC      [24]  541 	mov	dptr,#(_Arr_2_Glob + 0x019e)
   0104 74 0A         [12]  542 	mov	a,#0x0A
   0106 F0            [24]  543 	movx	@dptr,a
   0107 E4            [12]  544 	clr	a
   0108 A3            [24]  545 	inc	dptr
   0109 F0            [24]  546 	movx	@dptr,a
                            547 ;	src/dhry21a.c:130: printf ("\n");
   010A 74r62         [12]  548 	mov	a,#__str_5
   010C C0 E0         [24]  549 	push	acc
   010E 74s00         [12]  550 	mov	a,#(__str_5 >> 8)
   0110 C0 E0         [24]  551 	push	acc
   0112 74 80         [12]  552 	mov	a,#0x80
   0114 C0 E0         [24]  553 	push	acc
   0116 12r00r00      [24]  554 	lcall	_printf
   0119 15 81         [12]  555 	dec	sp
   011B 15 81         [12]  556 	dec	sp
   011D 15 81         [12]  557 	dec	sp
                            558 ;	src/dhry21a.c:131: printf ("Dhrystone Benchmark, Version 2.1 (Language: C)\n");
   011F 74r64         [12]  559 	mov	a,#__str_6
   0121 C0 E0         [24]  560 	push	acc
   0123 74s00         [12]  561 	mov	a,#(__str_6 >> 8)
   0125 C0 E0         [24]  562 	push	acc
   0127 74 80         [12]  563 	mov	a,#0x80
   0129 C0 E0         [24]  564 	push	acc
   012B 12r00r00      [24]  565 	lcall	_printf
   012E 15 81         [12]  566 	dec	sp
   0130 15 81         [12]  567 	dec	sp
   0132 15 81         [12]  568 	dec	sp
                            569 ;	src/dhry21a.c:132: printf ("\n");
   0134 74r62         [12]  570 	mov	a,#__str_5
   0136 C0 E0         [24]  571 	push	acc
   0138 74s00         [12]  572 	mov	a,#(__str_5 >> 8)
   013A C0 E0         [24]  573 	push	acc
   013C 74 80         [12]  574 	mov	a,#0x80
   013E C0 E0         [24]  575 	push	acc
   0140 12r00r00      [24]  576 	lcall	_printf
   0143 15 81         [12]  577 	dec	sp
   0145 15 81         [12]  578 	dec	sp
   0147 15 81         [12]  579 	dec	sp
                            580 ;	src/dhry21a.c:157: printf ("Execution starts, %d runs through Dhrystone\n",Number_Of_Runs);
   0149 74 A8         [12]  581 	mov	a,#0xA8
   014B C0 E0         [24]  582 	push	acc
   014D 74 61         [12]  583 	mov	a,#0x61
   014F C0 E0         [24]  584 	push	acc
   0151 74r94         [12]  585 	mov	a,#__str_7
   0153 C0 E0         [24]  586 	push	acc
   0155 74s00         [12]  587 	mov	a,#(__str_7 >> 8)
   0157 C0 E0         [24]  588 	push	acc
   0159 74 80         [12]  589 	mov	a,#0x80
   015B C0 E0         [24]  590 	push	acc
   015D 12r00r00      [24]  591 	lcall	_printf
   0160 E5 81         [12]  592 	mov	a,sp
   0162 24 FB         [12]  593 	add	a,#0xfb
   0164 F5 81         [12]  594 	mov	sp,a
                            595 ;	src/dhry21a.c:163: msecs_start = soc_get_msecs();
   0166 12r00r00      [24]  596 	lcall	_soc_get_msecs
   0169 AC 82         [24]  597 	mov	r4,dpl
   016B AD 83         [24]  598 	mov	r5,dph
   016D AE F0         [24]  599 	mov	r6,b
   016F FF            [12]  600 	mov	r7,a
   0170 90r05r20      [24]  601 	mov	dptr,#_msecs_start
   0173 EC            [12]  602 	mov	a,r4
   0174 F0            [24]  603 	movx	@dptr,a
   0175 ED            [12]  604 	mov	a,r5
   0176 A3            [24]  605 	inc	dptr
   0177 F0            [24]  606 	movx	@dptr,a
   0178 EE            [12]  607 	mov	a,r6
   0179 A3            [24]  608 	inc	dptr
   017A F0            [24]  609 	movx	@dptr,a
   017B EF            [12]  610 	mov	a,r7
   017C A3            [24]  611 	inc	dptr
   017D F0            [24]  612 	movx	@dptr,a
                            613 ;	src/dhry21a.c:168: for (Run_Index = 1; Run_Index <= Number_Of_Runs; ++Run_Index )
   017E 7E 01         [12]  614 	mov	r6,#0x01
   0180 7F 00         [12]  615 	mov	r7,#0x00
   0182                     616 00114$:
   0182 C3            [12]  617 	clr	c
   0183 74 A8         [12]  618 	mov	a,#0xA8
   0185 9E            [12]  619 	subb	a,r6
   0186 74 E1         [12]  620 	mov	a,#(0x61 ^ 0x80)
   0188 8F F0         [24]  621 	mov	b,r7
   018A 63 F0 80      [24]  622 	xrl	b,#0x80
   018D 95 F0         [12]  623 	subb	a,b
   018F 50 03         [24]  624 	jnc	00146$
   0191 02r04r00      [24]  625 	ljmp	00109$
   0194                     626 00146$:
                            627 ;	src/dhry21a.c:173: Proc_5();
   0194 C0 07         [24]  628 	push	ar7
   0196 C0 06         [24]  629 	push	ar6
   0198 12r0ErE3      [24]  630 	lcall	_Proc_5
                            631 ;	src/dhry21a.c:174: Proc_4();
   019B 12r0ErBB      [24]  632 	lcall	_Proc_4
                            633 ;	src/dhry21a.c:176: Int_1_Loc = 2;
   019E 90r05r44      [24]  634 	mov	dptr,#_main_Int_1_Loc_1_73
   01A1 74 02         [12]  635 	mov	a,#0x02
   01A3 F0            [24]  636 	movx	@dptr,a
   01A4 E4            [12]  637 	clr	a
   01A5 A3            [24]  638 	inc	dptr
   01A6 F0            [24]  639 	movx	@dptr,a
                            640 ;	src/dhry21a.c:177: Int_2_Loc = 3;
   01A7 90r05r46      [24]  641 	mov	dptr,#_main_Int_2_Loc_1_73
   01AA 74 03         [12]  642 	mov	a,#0x03
   01AC F0            [24]  643 	movx	@dptr,a
   01AD E4            [12]  644 	clr	a
   01AE A3            [24]  645 	inc	dptr
   01AF F0            [24]  646 	movx	@dptr,a
                            647 ;	src/dhry21a.c:178: strcpy (Str_2_Loc, "DHRYSTONE PROGRAM, 2'ND STRING");
   01B0 90r00r00      [24]  648 	mov	dptr,#_strcpy_PARM_2
   01B3 74rC1         [12]  649 	mov	a,#__str_8
   01B5 F0            [24]  650 	movx	@dptr,a
   01B6 74s00         [12]  651 	mov	a,#(__str_8 >> 8)
   01B8 A3            [24]  652 	inc	dptr
   01B9 F0            [24]  653 	movx	@dptr,a
   01BA 74 80         [12]  654 	mov	a,#0x80
   01BC A3            [24]  655 	inc	dptr
   01BD F0            [24]  656 	movx	@dptr,a
   01BE 90r05r6A      [24]  657 	mov	dptr,#_main_Str_2_Loc_1_73
   01C1 75 F0 00      [24]  658 	mov	b,#0x00
   01C4 12r00r00      [24]  659 	lcall	_strcpy
                            660 ;	src/dhry21a.c:179: Enum_Loc = Ident_2;
   01C7 90r05r4A      [24]  661 	mov	dptr,#_main_Enum_Loc_1_73
   01CA 74 01         [12]  662 	mov	a,#0x01
   01CC F0            [24]  663 	movx	@dptr,a
                            664 ;	src/dhry21a.c:180: Bool_Glob = ! Func_2 (Str_1_Loc, Str_2_Loc);
   01CD 90r00r00      [24]  665 	mov	dptr,#_Func_2_PARM_2
   01D0 74r6A         [12]  666 	mov	a,#_main_Str_2_Loc_1_73
   01D2 F0            [24]  667 	movx	@dptr,a
   01D3 74s05         [12]  668 	mov	a,#(_main_Str_2_Loc_1_73 >> 8)
   01D5 A3            [24]  669 	inc	dptr
   01D6 F0            [24]  670 	movx	@dptr,a
   01D7 E4            [12]  671 	clr	a
   01D8 A3            [24]  672 	inc	dptr
   01D9 F0            [24]  673 	movx	@dptr,a
   01DA 90r05r4B      [24]  674 	mov	dptr,#_main_Str_1_Loc_1_73
   01DD 75 F0 00      [24]  675 	mov	b,#0x00
   01E0 12r00r00      [24]  676 	lcall	_Func_2
   01E3 AC 82         [24]  677 	mov	r4,dpl
   01E5 AD 83         [24]  678 	mov	r5,dph
   01E7 D0 06         [24]  679 	pop	ar6
   01E9 D0 07         [24]  680 	pop	ar7
   01EB EC            [12]  681 	mov	a,r4
   01EC 4D            [12]  682 	orl	a,r5
   01ED B4 01 00      [24]  683 	cjne	a,#0x01,00147$
   01F0                     684 00147$:
   01F0 E4            [12]  685 	clr	a
   01F1 33            [12]  686 	rlc	a
   01F2 FC            [12]  687 	mov	r4,a
   01F3 90r00r08      [24]  688 	mov	dptr,#_Bool_Glob
   01F6 F0            [24]  689 	movx	@dptr,a
   01F7 EC            [12]  690 	mov	a,r4
   01F8 33            [12]  691 	rlc	a
   01F9 95 E0         [12]  692 	subb	a,acc
   01FB A3            [24]  693 	inc	dptr
   01FC F0            [24]  694 	movx	@dptr,a
                            695 ;	src/dhry21a.c:182: while (Int_1_Loc < Int_2_Loc)  /* loop body executed once */
   01FD 7C 02         [12]  696 	mov	r4,#0x02
   01FF 7D 00         [12]  697 	mov	r5,#0x00
   0201                     698 00103$:
   0201 C3            [12]  699 	clr	c
   0202 EC            [12]  700 	mov	a,r4
   0203 94 03         [12]  701 	subb	a,#0x03
   0205 ED            [12]  702 	mov	a,r5
   0206 64 80         [12]  703 	xrl	a,#0x80
   0208 94 80         [12]  704 	subb	a,#0x80
   020A 50 67         [24]  705 	jnc	00126$
                            706 ;	src/dhry21a.c:184: Int_3_Loc = 5 * Int_1_Loc - Int_2_Loc;
   020C 90r00r00      [24]  707 	mov	dptr,#__mulint_PARM_2
   020F EC            [12]  708 	mov	a,r4
   0210 F0            [24]  709 	movx	@dptr,a
   0211 ED            [12]  710 	mov	a,r5
   0212 A3            [24]  711 	inc	dptr
   0213 F0            [24]  712 	movx	@dptr,a
   0214 90 00 05      [24]  713 	mov	dptr,#0x0005
   0217 C0 07         [24]  714 	push	ar7
   0219 C0 06         [24]  715 	push	ar6
   021B C0 05         [24]  716 	push	ar5
   021D C0 04         [24]  717 	push	ar4
   021F 12r00r00      [24]  718 	lcall	__mulint
   0222 E5 82         [12]  719 	mov	a,dpl
   0224 85 83 F0      [24]  720 	mov	b,dph
   0227 D0 04         [24]  721 	pop	ar4
   0229 D0 05         [24]  722 	pop	ar5
   022B 24 FD         [12]  723 	add	a,#0xFD
   022D FA            [12]  724 	mov	r2,a
   022E E5 F0         [12]  725 	mov	a,b
   0230 34 FF         [12]  726 	addc	a,#0xFF
   0232 FB            [12]  727 	mov	r3,a
   0233 90r05r48      [24]  728 	mov	dptr,#_main_Int_3_Loc_1_73
   0236 EA            [12]  729 	mov	a,r2
   0237 F0            [24]  730 	movx	@dptr,a
   0238 EB            [12]  731 	mov	a,r3
   0239 A3            [24]  732 	inc	dptr
   023A F0            [24]  733 	movx	@dptr,a
                            734 ;	src/dhry21a.c:186: Proc_7 (Int_1_Loc, Int_2_Loc, &Int_3_Loc);
   023B 90r00r00      [24]  735 	mov	dptr,#_Proc_7_PARM_2
   023E 74 03         [12]  736 	mov	a,#0x03
   0240 F0            [24]  737 	movx	@dptr,a
   0241 E4            [12]  738 	clr	a
   0242 A3            [24]  739 	inc	dptr
   0243 F0            [24]  740 	movx	@dptr,a
   0244 90r00r00      [24]  741 	mov	dptr,#_Proc_7_PARM_3
   0247 74r48         [12]  742 	mov	a,#_main_Int_3_Loc_1_73
   0249 F0            [24]  743 	movx	@dptr,a
   024A 74s05         [12]  744 	mov	a,#(_main_Int_3_Loc_1_73 >> 8)
   024C A3            [24]  745 	inc	dptr
   024D F0            [24]  746 	movx	@dptr,a
   024E E4            [12]  747 	clr	a
   024F A3            [24]  748 	inc	dptr
   0250 F0            [24]  749 	movx	@dptr,a
   0251 8C 82         [24]  750 	mov	dpl,r4
   0253 8D 83         [24]  751 	mov	dph,r5
   0255 C0 05         [24]  752 	push	ar5
   0257 C0 04         [24]  753 	push	ar4
   0259 12r00r00      [24]  754 	lcall	_Proc_7
   025C D0 04         [24]  755 	pop	ar4
   025E D0 05         [24]  756 	pop	ar5
   0260 D0 06         [24]  757 	pop	ar6
   0262 D0 07         [24]  758 	pop	ar7
                            759 ;	src/dhry21a.c:188: Int_1_Loc += 1;
   0264 0C            [12]  760 	inc	r4
   0265 BC 00 01      [24]  761 	cjne	r4,#0x00,00149$
   0268 0D            [12]  762 	inc	r5
   0269                     763 00149$:
   0269 90r05r44      [24]  764 	mov	dptr,#_main_Int_1_Loc_1_73
   026C EC            [12]  765 	mov	a,r4
   026D F0            [24]  766 	movx	@dptr,a
   026E ED            [12]  767 	mov	a,r5
   026F A3            [24]  768 	inc	dptr
   0270 F0            [24]  769 	movx	@dptr,a
   0271 80 8E         [24]  770 	sjmp	00103$
   0273                     771 00126$:
   0273 90r05r44      [24]  772 	mov	dptr,#_main_Int_1_Loc_1_73
   0276 EC            [12]  773 	mov	a,r4
   0277 F0            [24]  774 	movx	@dptr,a
   0278 ED            [12]  775 	mov	a,r5
   0279 A3            [24]  776 	inc	dptr
   027A F0            [24]  777 	movx	@dptr,a
                            778 ;	src/dhry21a.c:194: Proc_8 (Arr_1_Glob, Arr_2_Glob, Int_1_Loc, Int_3_Loc);
   027B 90r05r48      [24]  779 	mov	dptr,#_main_Int_3_Loc_1_73
   027E E0            [24]  780 	movx	a,@dptr
   027F FA            [12]  781 	mov	r2,a
   0280 A3            [24]  782 	inc	dptr
   0281 E0            [24]  783 	movx	a,@dptr
   0282 FB            [12]  784 	mov	r3,a
   0283 90r00r00      [24]  785 	mov	dptr,#_Proc_8_PARM_2
   0286 74r3E         [12]  786 	mov	a,#_Arr_2_Glob
   0288 F0            [24]  787 	movx	@dptr,a
   0289 74s00         [12]  788 	mov	a,#(_Arr_2_Glob >> 8)
   028B A3            [24]  789 	inc	dptr
   028C F0            [24]  790 	movx	@dptr,a
   028D E4            [12]  791 	clr	a
   028E A3            [24]  792 	inc	dptr
   028F F0            [24]  793 	movx	@dptr,a
   0290 90r00r00      [24]  794 	mov	dptr,#_Proc_8_PARM_3
   0293 EC            [12]  795 	mov	a,r4
   0294 F0            [24]  796 	movx	@dptr,a
   0295 ED            [12]  797 	mov	a,r5
   0296 A3            [24]  798 	inc	dptr
   0297 F0            [24]  799 	movx	@dptr,a
   0298 90r00r00      [24]  800 	mov	dptr,#_Proc_8_PARM_4
   029B EA            [12]  801 	mov	a,r2
   029C F0            [24]  802 	movx	@dptr,a
   029D EB            [12]  803 	mov	a,r3
   029E A3            [24]  804 	inc	dptr
   029F F0            [24]  805 	movx	@dptr,a
   02A0 90r00r0C      [24]  806 	mov	dptr,#_Arr_1_Glob
   02A3 75 F0 00      [24]  807 	mov	b,#0x00
   02A6 C0 07         [24]  808 	push	ar7
   02A8 C0 06         [24]  809 	push	ar6
   02AA 12r00r00      [24]  810 	lcall	_Proc_8
                            811 ;	src/dhry21a.c:196: Proc_1 (Ptr_Glob);
   02AD 90r00r00      [24]  812 	mov	dptr,#_Ptr_Glob
   02B0 E0            [24]  813 	movx	a,@dptr
   02B1 FB            [12]  814 	mov	r3,a
   02B2 A3            [24]  815 	inc	dptr
   02B3 E0            [24]  816 	movx	a,@dptr
   02B4 FC            [12]  817 	mov	r4,a
   02B5 A3            [24]  818 	inc	dptr
   02B6 E0            [24]  819 	movx	a,@dptr
   02B7 FD            [12]  820 	mov	r5,a
   02B8 8B 82         [24]  821 	mov	dpl,r3
   02BA 8C 83         [24]  822 	mov	dph,r4
   02BC 8D F0         [24]  823 	mov	b,r5
   02BE 12r0BrAB      [24]  824 	lcall	_Proc_1
   02C1 D0 06         [24]  825 	pop	ar6
   02C3 D0 07         [24]  826 	pop	ar7
                            827 ;	src/dhry21a.c:197: for (Ch_Index = 'A'; Ch_Index <= Ch_2_Glob; ++Ch_Index)
   02C5 8E 04         [24]  828 	mov	ar4,r6
   02C7 8F 05         [24]  829 	mov	ar5,r7
   02C9 7B 41         [12]  830 	mov	r3,#0x41
   02CB                     831 00111$:
   02CB 90r00r0B      [24]  832 	mov	dptr,#_Ch_2_Glob
   02CE E0            [24]  833 	movx	a,@dptr
   02CF FA            [12]  834 	mov	r2,a
   02D0 C3            [12]  835 	clr	c
   02D1 64 80         [12]  836 	xrl	a,#0x80
   02D3 8B F0         [24]  837 	mov	b,r3
   02D5 63 F0 80      [24]  838 	xrl	b,#0x80
   02D8 95 F0         [12]  839 	subb	a,b
   02DA 40 7B         [24]  840 	jc	00108$
                            841 ;	src/dhry21a.c:200: if (Enum_Loc == Func_1 (Ch_Index, 'C'))
   02DC 90r00r00      [24]  842 	mov	dptr,#_Func_1_PARM_2
   02DF 74 43         [12]  843 	mov	a,#0x43
   02E1 F0            [24]  844 	movx	@dptr,a
   02E2 8B 82         [24]  845 	mov	dpl,r3
   02E4 C0 07         [24]  846 	push	ar7
   02E6 C0 06         [24]  847 	push	ar6
   02E8 C0 05         [24]  848 	push	ar5
   02EA C0 04         [24]  849 	push	ar4
   02EC C0 03         [24]  850 	push	ar3
   02EE 12r00r00      [24]  851 	lcall	_Func_1
   02F1 AA 82         [24]  852 	mov	r2,dpl
   02F3 D0 03         [24]  853 	pop	ar3
   02F5 D0 04         [24]  854 	pop	ar4
   02F7 D0 05         [24]  855 	pop	ar5
   02F9 D0 06         [24]  856 	pop	ar6
   02FB D0 07         [24]  857 	pop	ar7
   02FD 90r05r4A      [24]  858 	mov	dptr,#_main_Enum_Loc_1_73
   0300 E0            [24]  859 	movx	a,@dptr
   0301 F9            [12]  860 	mov	r1,a
   0302 B5 02 4E      [24]  861 	cjne	a,ar2,00112$
                            862 ;	src/dhry21a.c:203: Proc_6 (Ident_1, &Enum_Loc);
   0305 90r00r00      [24]  863 	mov	dptr,#_Proc_6_PARM_2
   0308 74r4A         [12]  864 	mov	a,#_main_Enum_Loc_1_73
   030A F0            [24]  865 	movx	@dptr,a
   030B 74s05         [12]  866 	mov	a,#(_main_Enum_Loc_1_73 >> 8)
   030D A3            [24]  867 	inc	dptr
   030E F0            [24]  868 	movx	@dptr,a
   030F E4            [12]  869 	clr	a
   0310 A3            [24]  870 	inc	dptr
   0311 F0            [24]  871 	movx	@dptr,a
   0312 75 82 00      [24]  872 	mov	dpl,#0x00
   0315 C0 07         [24]  873 	push	ar7
   0317 C0 06         [24]  874 	push	ar6
   0319 C0 05         [24]  875 	push	ar5
   031B C0 04         [24]  876 	push	ar4
   031D C0 03         [24]  877 	push	ar3
   031F 12r00r00      [24]  878 	lcall	_Proc_6
                            879 ;	src/dhry21a.c:204: strcpy (Str_2_Loc, "DHRYSTONE PROGRAM, 3'RD STRING");
   0322 90r00r00      [24]  880 	mov	dptr,#_strcpy_PARM_2
   0325 74rE0         [12]  881 	mov	a,#__str_9
   0327 F0            [24]  882 	movx	@dptr,a
   0328 74s00         [12]  883 	mov	a,#(__str_9 >> 8)
   032A A3            [24]  884 	inc	dptr
   032B F0            [24]  885 	movx	@dptr,a
   032C 74 80         [12]  886 	mov	a,#0x80
   032E A3            [24]  887 	inc	dptr
   032F F0            [24]  888 	movx	@dptr,a
   0330 90r05r6A      [24]  889 	mov	dptr,#_main_Str_2_Loc_1_73
   0333 75 F0 00      [24]  890 	mov	b,#0x00
   0336 12r00r00      [24]  891 	lcall	_strcpy
   0339 D0 03         [24]  892 	pop	ar3
   033B D0 04         [24]  893 	pop	ar4
   033D D0 05         [24]  894 	pop	ar5
   033F D0 06         [24]  895 	pop	ar6
   0341 D0 07         [24]  896 	pop	ar7
                            897 ;	src/dhry21a.c:205: Int_2_Loc = Run_Index;
   0343 90r05r46      [24]  898 	mov	dptr,#_main_Int_2_Loc_1_73
   0346 EC            [12]  899 	mov	a,r4
   0347 F0            [24]  900 	movx	@dptr,a
   0348 ED            [12]  901 	mov	a,r5
   0349 A3            [24]  902 	inc	dptr
   034A F0            [24]  903 	movx	@dptr,a
                            904 ;	src/dhry21a.c:206: Int_Glob = Run_Index;
   034B 90r00r06      [24]  905 	mov	dptr,#_Int_Glob
   034E EC            [12]  906 	mov	a,r4
   034F F0            [24]  907 	movx	@dptr,a
   0350 ED            [12]  908 	mov	a,r5
   0351 A3            [24]  909 	inc	dptr
   0352 F0            [24]  910 	movx	@dptr,a
   0353                     911 00112$:
                            912 ;	src/dhry21a.c:197: for (Ch_Index = 'A'; Ch_Index <= Ch_2_Glob; ++Ch_Index)
   0353 0B            [12]  913 	inc	r3
   0354 02r02rCB      [24]  914 	ljmp	00111$
   0357                     915 00108$:
                            916 ;	src/dhry21a.c:210: Int_2_Loc = Int_2_Loc * Int_1_Loc;
   0357 90r05r44      [24]  917 	mov	dptr,#_main_Int_1_Loc_1_73
   035A E0            [24]  918 	movx	a,@dptr
   035B FC            [12]  919 	mov	r4,a
   035C A3            [24]  920 	inc	dptr
   035D E0            [24]  921 	movx	a,@dptr
   035E FD            [12]  922 	mov	r5,a
   035F 90r05r46      [24]  923 	mov	dptr,#_main_Int_2_Loc_1_73
   0362 E0            [24]  924 	movx	a,@dptr
   0363 FA            [12]  925 	mov	r2,a
   0364 A3            [24]  926 	inc	dptr
   0365 E0            [24]  927 	movx	a,@dptr
   0366 FB            [12]  928 	mov	r3,a
   0367 90r00r00      [24]  929 	mov	dptr,#__mulint_PARM_2
   036A EC            [12]  930 	mov	a,r4
   036B F0            [24]  931 	movx	@dptr,a
   036C ED            [12]  932 	mov	a,r5
   036D A3            [24]  933 	inc	dptr
   036E F0            [24]  934 	movx	@dptr,a
   036F 8A 82         [24]  935 	mov	dpl,r2
   0371 8B 83         [24]  936 	mov	dph,r3
   0373 C0 07         [24]  937 	push	ar7
   0375 C0 06         [24]  938 	push	ar6
   0377 12r00r00      [24]  939 	lcall	__mulint
   037A E5 82         [12]  940 	mov	a,dpl
   037C 85 83 F0      [24]  941 	mov	b,dph
   037F 90r05r46      [24]  942 	mov	dptr,#_main_Int_2_Loc_1_73
   0382 F0            [24]  943 	movx	@dptr,a
   0383 E5 F0         [12]  944 	mov	a,b
   0385 A3            [24]  945 	inc	dptr
   0386 F0            [24]  946 	movx	@dptr,a
                            947 ;	src/dhry21a.c:211: Int_1_Loc = Int_2_Loc / Int_3_Loc;
   0387 90r05r48      [24]  948 	mov	dptr,#_main_Int_3_Loc_1_73
   038A E0            [24]  949 	movx	a,@dptr
   038B FC            [12]  950 	mov	r4,a
   038C A3            [24]  951 	inc	dptr
   038D E0            [24]  952 	movx	a,@dptr
   038E FD            [12]  953 	mov	r5,a
   038F 90r05r46      [24]  954 	mov	dptr,#_main_Int_2_Loc_1_73
   0392 E0            [24]  955 	movx	a,@dptr
   0393 FA            [12]  956 	mov	r2,a
   0394 A3            [24]  957 	inc	dptr
   0395 E0            [24]  958 	movx	a,@dptr
   0396 FB            [12]  959 	mov	r3,a
   0397 90r00r00      [24]  960 	mov	dptr,#__divsint_PARM_2
   039A EC            [12]  961 	mov	a,r4
   039B F0            [24]  962 	movx	@dptr,a
   039C ED            [12]  963 	mov	a,r5
   039D A3            [24]  964 	inc	dptr
   039E F0            [24]  965 	movx	@dptr,a
   039F 8A 82         [24]  966 	mov	dpl,r2
   03A1 8B 83         [24]  967 	mov	dph,r3
   03A3 C0 05         [24]  968 	push	ar5
   03A5 C0 04         [24]  969 	push	ar4
   03A7 C0 03         [24]  970 	push	ar3
   03A9 C0 02         [24]  971 	push	ar2
   03AB 12r00r00      [24]  972 	lcall	__divsint
   03AE A8 82         [24]  973 	mov	r0,dpl
   03B0 A9 83         [24]  974 	mov	r1,dph
   03B2 D0 02         [24]  975 	pop	ar2
   03B4 D0 03         [24]  976 	pop	ar3
   03B6 D0 04         [24]  977 	pop	ar4
   03B8 D0 05         [24]  978 	pop	ar5
   03BA 90r05r44      [24]  979 	mov	dptr,#_main_Int_1_Loc_1_73
   03BD E8            [12]  980 	mov	a,r0
   03BE F0            [24]  981 	movx	@dptr,a
   03BF E9            [12]  982 	mov	a,r1
   03C0 A3            [24]  983 	inc	dptr
   03C1 F0            [24]  984 	movx	@dptr,a
                            985 ;	src/dhry21a.c:212: Int_2_Loc = 7 * (Int_2_Loc - Int_3_Loc) - Int_1_Loc;
   03C2 90r00r00      [24]  986 	mov	dptr,#__mulint_PARM_2
   03C5 EA            [12]  987 	mov	a,r2
   03C6 C3            [12]  988 	clr	c
   03C7 9C            [12]  989 	subb	a,r4
   03C8 F0            [24]  990 	movx	@dptr,a
   03C9 EB            [12]  991 	mov	a,r3
   03CA 9D            [12]  992 	subb	a,r5
   03CB A3            [24]  993 	inc	dptr
   03CC F0            [24]  994 	movx	@dptr,a
   03CD 90 00 07      [24]  995 	mov	dptr,#0x0007
   03D0 C0 01         [24]  996 	push	ar1
   03D2 C0 00         [24]  997 	push	ar0
   03D4 12r00r00      [24]  998 	lcall	__mulint
   03D7 E5 82         [12]  999 	mov	a,dpl
   03D9 85 83 F0      [24] 1000 	mov	b,dph
   03DC D0 00         [24] 1001 	pop	ar0
   03DE D0 01         [24] 1002 	pop	ar1
   03E0 90r05r46      [24] 1003 	mov	dptr,#_main_Int_2_Loc_1_73
   03E3 C3            [12] 1004 	clr	c
   03E4 98            [12] 1005 	subb	a,r0
   03E5 F0            [24] 1006 	movx	@dptr,a
   03E6 E5 F0         [12] 1007 	mov	a,b
   03E8 99            [12] 1008 	subb	a,r1
   03E9 A3            [24] 1009 	inc	dptr
   03EA F0            [24] 1010 	movx	@dptr,a
                           1011 ;	src/dhry21a.c:214: Proc_2 (&Int_1_Loc);
   03EB 90r05r44      [24] 1012 	mov	dptr,#_main_Int_1_Loc_1_73
   03EE 75 F0 00      [24] 1013 	mov	b,#0x00
   03F1 12r0DrCD      [24] 1014 	lcall	_Proc_2
   03F4 D0 06         [24] 1015 	pop	ar6
   03F6 D0 07         [24] 1016 	pop	ar7
                           1017 ;	src/dhry21a.c:168: for (Run_Index = 1; Run_Index <= Number_Of_Runs; ++Run_Index )
   03F8 0E            [12] 1018 	inc	r6
   03F9 BE 00 01      [24] 1019 	cjne	r6,#0x00,00153$
   03FC 0F            [12] 1020 	inc	r7
   03FD                    1021 00153$:
   03FD 02r01r82      [24] 1022 	ljmp	00114$
   0400                    1023 00109$:
                           1024 ;	src/dhry21a.c:224: msecs_end = soc_get_msecs();
   0400 12r00r00      [24] 1025 	lcall	_soc_get_msecs
   0403 AC 82         [24] 1026 	mov	r4,dpl
   0405 AD 83         [24] 1027 	mov	r5,dph
   0407 AE F0         [24] 1028 	mov	r6,b
   0409 FF            [12] 1029 	mov	r7,a
   040A 90r05r24      [24] 1030 	mov	dptr,#_msecs_end
   040D EC            [12] 1031 	mov	a,r4
   040E F0            [24] 1032 	movx	@dptr,a
   040F ED            [12] 1033 	mov	a,r5
   0410 A3            [24] 1034 	inc	dptr
   0411 F0            [24] 1035 	movx	@dptr,a
   0412 EE            [12] 1036 	mov	a,r6
   0413 A3            [24] 1037 	inc	dptr
   0414 F0            [24] 1038 	movx	@dptr,a
   0415 EF            [12] 1039 	mov	a,r7
   0416 A3            [24] 1040 	inc	dptr
   0417 F0            [24] 1041 	movx	@dptr,a
                           1042 ;	src/dhry21a.c:229: printf ("Execution ends\n");
   0418 74rFF         [12] 1043 	mov	a,#__str_10
   041A C0 E0         [24] 1044 	push	acc
   041C 74s00         [12] 1045 	mov	a,#(__str_10 >> 8)
   041E C0 E0         [24] 1046 	push	acc
   0420 74 80         [12] 1047 	mov	a,#0x80
   0422 C0 E0         [24] 1048 	push	acc
   0424 12r00r00      [24] 1049 	lcall	_printf
   0427 15 81         [12] 1050 	dec	sp
   0429 15 81         [12] 1051 	dec	sp
   042B 15 81         [12] 1052 	dec	sp
                           1053 ;	src/dhry21a.c:230: printf ("\n");
   042D 74r62         [12] 1054 	mov	a,#__str_5
   042F C0 E0         [24] 1055 	push	acc
   0431 74s00         [12] 1056 	mov	a,#(__str_5 >> 8)
   0433 C0 E0         [24] 1057 	push	acc
   0435 74 80         [12] 1058 	mov	a,#0x80
   0437 C0 E0         [24] 1059 	push	acc
   0439 12r00r00      [24] 1060 	lcall	_printf
   043C 15 81         [12] 1061 	dec	sp
   043E 15 81         [12] 1062 	dec	sp
   0440 15 81         [12] 1063 	dec	sp
                           1064 ;	src/dhry21a.c:231: printf ("Final values of the variables used in the benchmark:\n");
   0442 74r0F         [12] 1065 	mov	a,#__str_11
   0444 C0 E0         [24] 1066 	push	acc
   0446 74s01         [12] 1067 	mov	a,#(__str_11 >> 8)
   0448 C0 E0         [24] 1068 	push	acc
   044A 74 80         [12] 1069 	mov	a,#0x80
   044C C0 E0         [24] 1070 	push	acc
   044E 12r00r00      [24] 1071 	lcall	_printf
   0451 15 81         [12] 1072 	dec	sp
   0453 15 81         [12] 1073 	dec	sp
   0455 15 81         [12] 1074 	dec	sp
                           1075 ;	src/dhry21a.c:232: printf ("\n");
   0457 74r62         [12] 1076 	mov	a,#__str_5
   0459 C0 E0         [24] 1077 	push	acc
   045B 74s00         [12] 1078 	mov	a,#(__str_5 >> 8)
   045D C0 E0         [24] 1079 	push	acc
   045F 74 80         [12] 1080 	mov	a,#0x80
   0461 C0 E0         [24] 1081 	push	acc
   0463 12r00r00      [24] 1082 	lcall	_printf
   0466 15 81         [12] 1083 	dec	sp
   0468 15 81         [12] 1084 	dec	sp
   046A 15 81         [12] 1085 	dec	sp
                           1086 ;	src/dhry21a.c:233: printf ("Int_Glob:            %d\n", Int_Glob);
   046C 90r00r06      [24] 1087 	mov	dptr,#_Int_Glob
   046F E0            [24] 1088 	movx	a,@dptr
   0470 C0 E0         [24] 1089 	push	acc
   0472 A3            [24] 1090 	inc	dptr
   0473 E0            [24] 1091 	movx	a,@dptr
   0474 C0 E0         [24] 1092 	push	acc
   0476 74r45         [12] 1093 	mov	a,#__str_12
   0478 C0 E0         [24] 1094 	push	acc
   047A 74s01         [12] 1095 	mov	a,#(__str_12 >> 8)
   047C C0 E0         [24] 1096 	push	acc
   047E 74 80         [12] 1097 	mov	a,#0x80
   0480 C0 E0         [24] 1098 	push	acc
   0482 12r00r00      [24] 1099 	lcall	_printf
   0485 E5 81         [12] 1100 	mov	a,sp
   0487 24 FB         [12] 1101 	add	a,#0xfb
   0489 F5 81         [12] 1102 	mov	sp,a
                           1103 ;	src/dhry21a.c:234: printf ("        should be:   %d\n", 5);
   048B 74 05         [12] 1104 	mov	a,#0x05
   048D C0 E0         [24] 1105 	push	acc
   048F E4            [12] 1106 	clr	a
   0490 C0 E0         [24] 1107 	push	acc
   0492 74r5E         [12] 1108 	mov	a,#__str_13
   0494 C0 E0         [24] 1109 	push	acc
   0496 74s01         [12] 1110 	mov	a,#(__str_13 >> 8)
   0498 C0 E0         [24] 1111 	push	acc
   049A 74 80         [12] 1112 	mov	a,#0x80
   049C C0 E0         [24] 1113 	push	acc
   049E 12r00r00      [24] 1114 	lcall	_printf
   04A1 E5 81         [12] 1115 	mov	a,sp
   04A3 24 FB         [12] 1116 	add	a,#0xfb
   04A5 F5 81         [12] 1117 	mov	sp,a
                           1118 ;	src/dhry21a.c:235: printf ("Bool_Glob:           %d\n", Bool_Glob);
   04A7 90r00r08      [24] 1119 	mov	dptr,#_Bool_Glob
   04AA E0            [24] 1120 	movx	a,@dptr
   04AB C0 E0         [24] 1121 	push	acc
   04AD A3            [24] 1122 	inc	dptr
   04AE E0            [24] 1123 	movx	a,@dptr
   04AF C0 E0         [24] 1124 	push	acc
   04B1 74r77         [12] 1125 	mov	a,#__str_14
   04B3 C0 E0         [24] 1126 	push	acc
   04B5 74s01         [12] 1127 	mov	a,#(__str_14 >> 8)
   04B7 C0 E0         [24] 1128 	push	acc
   04B9 74 80         [12] 1129 	mov	a,#0x80
   04BB C0 E0         [24] 1130 	push	acc
   04BD 12r00r00      [24] 1131 	lcall	_printf
   04C0 E5 81         [12] 1132 	mov	a,sp
   04C2 24 FB         [12] 1133 	add	a,#0xfb
   04C4 F5 81         [12] 1134 	mov	sp,a
                           1135 ;	src/dhry21a.c:236: printf ("        should be:   %d\n", 1);
   04C6 74 01         [12] 1136 	mov	a,#0x01
   04C8 C0 E0         [24] 1137 	push	acc
   04CA E4            [12] 1138 	clr	a
   04CB C0 E0         [24] 1139 	push	acc
   04CD 74r5E         [12] 1140 	mov	a,#__str_13
   04CF C0 E0         [24] 1141 	push	acc
   04D1 74s01         [12] 1142 	mov	a,#(__str_13 >> 8)
   04D3 C0 E0         [24] 1143 	push	acc
   04D5 74 80         [12] 1144 	mov	a,#0x80
   04D7 C0 E0         [24] 1145 	push	acc
   04D9 12r00r00      [24] 1146 	lcall	_printf
   04DC E5 81         [12] 1147 	mov	a,sp
   04DE 24 FB         [12] 1148 	add	a,#0xfb
   04E0 F5 81         [12] 1149 	mov	sp,a
                           1150 ;	src/dhry21a.c:237: printf ("Ch_1_Glob:           %c\n", Ch_1_Glob);
   04E2 90r00r0A      [24] 1151 	mov	dptr,#_Ch_1_Glob
   04E5 E0            [24] 1152 	movx	a,@dptr
   04E6 FF            [12] 1153 	mov	r7,a
   04E7 33            [12] 1154 	rlc	a
   04E8 95 E0         [12] 1155 	subb	a,acc
   04EA FE            [12] 1156 	mov	r6,a
   04EB C0 07         [24] 1157 	push	ar7
   04ED C0 06         [24] 1158 	push	ar6
   04EF 74r90         [12] 1159 	mov	a,#__str_15
   04F1 C0 E0         [24] 1160 	push	acc
   04F3 74s01         [12] 1161 	mov	a,#(__str_15 >> 8)
   04F5 C0 E0         [24] 1162 	push	acc
   04F7 74 80         [12] 1163 	mov	a,#0x80
   04F9 C0 E0         [24] 1164 	push	acc
   04FB 12r00r00      [24] 1165 	lcall	_printf
   04FE E5 81         [12] 1166 	mov	a,sp
   0500 24 FB         [12] 1167 	add	a,#0xfb
   0502 F5 81         [12] 1168 	mov	sp,a
                           1169 ;	src/dhry21a.c:238: printf ("        should be:   %c\n", 'A');
   0504 74 41         [12] 1170 	mov	a,#0x41
   0506 C0 E0         [24] 1171 	push	acc
   0508 E4            [12] 1172 	clr	a
   0509 C0 E0         [24] 1173 	push	acc
   050B 74rA9         [12] 1174 	mov	a,#__str_16
   050D C0 E0         [24] 1175 	push	acc
   050F 74s01         [12] 1176 	mov	a,#(__str_16 >> 8)
   0511 C0 E0         [24] 1177 	push	acc
   0513 74 80         [12] 1178 	mov	a,#0x80
   0515 C0 E0         [24] 1179 	push	acc
   0517 12r00r00      [24] 1180 	lcall	_printf
   051A E5 81         [12] 1181 	mov	a,sp
   051C 24 FB         [12] 1182 	add	a,#0xfb
   051E F5 81         [12] 1183 	mov	sp,a
                           1184 ;	src/dhry21a.c:239: printf ("Ch_2_Glob:           %c\n", Ch_2_Glob);
   0520 90r00r0B      [24] 1185 	mov	dptr,#_Ch_2_Glob
   0523 E0            [24] 1186 	movx	a,@dptr
   0524 FF            [12] 1187 	mov	r7,a
   0525 33            [12] 1188 	rlc	a
   0526 95 E0         [12] 1189 	subb	a,acc
   0528 FE            [12] 1190 	mov	r6,a
   0529 C0 07         [24] 1191 	push	ar7
   052B C0 06         [24] 1192 	push	ar6
   052D 74rC2         [12] 1193 	mov	a,#__str_17
   052F C0 E0         [24] 1194 	push	acc
   0531 74s01         [12] 1195 	mov	a,#(__str_17 >> 8)
   0533 C0 E0         [24] 1196 	push	acc
   0535 74 80         [12] 1197 	mov	a,#0x80
   0537 C0 E0         [24] 1198 	push	acc
   0539 12r00r00      [24] 1199 	lcall	_printf
   053C E5 81         [12] 1200 	mov	a,sp
   053E 24 FB         [12] 1201 	add	a,#0xfb
   0540 F5 81         [12] 1202 	mov	sp,a
                           1203 ;	src/dhry21a.c:240: printf ("        should be:   %c\n", 'B');
   0542 74 42         [12] 1204 	mov	a,#0x42
   0544 C0 E0         [24] 1205 	push	acc
   0546 E4            [12] 1206 	clr	a
   0547 C0 E0         [24] 1207 	push	acc
   0549 74rA9         [12] 1208 	mov	a,#__str_16
   054B C0 E0         [24] 1209 	push	acc
   054D 74s01         [12] 1210 	mov	a,#(__str_16 >> 8)
   054F C0 E0         [24] 1211 	push	acc
   0551 74 80         [12] 1212 	mov	a,#0x80
   0553 C0 E0         [24] 1213 	push	acc
   0555 12r00r00      [24] 1214 	lcall	_printf
   0558 E5 81         [12] 1215 	mov	a,sp
   055A 24 FB         [12] 1216 	add	a,#0xfb
   055C F5 81         [12] 1217 	mov	sp,a
                           1218 ;	src/dhry21a.c:241: printf ("Arr_1_Glob[8]:       %d\n", Arr_1_Glob[8]);
   055E 90r00r1C      [24] 1219 	mov	dptr,#(_Arr_1_Glob + 0x0010)
   0561 E0            [24] 1220 	movx	a,@dptr
   0562 FE            [12] 1221 	mov	r6,a
   0563 A3            [24] 1222 	inc	dptr
   0564 E0            [24] 1223 	movx	a,@dptr
   0565 FF            [12] 1224 	mov	r7,a
   0566 C0 06         [24] 1225 	push	ar6
   0568 C0 07         [24] 1226 	push	ar7
   056A 74rDB         [12] 1227 	mov	a,#__str_18
   056C C0 E0         [24] 1228 	push	acc
   056E 74s01         [12] 1229 	mov	a,#(__str_18 >> 8)
   0570 C0 E0         [24] 1230 	push	acc
   0572 74 80         [12] 1231 	mov	a,#0x80
   0574 C0 E0         [24] 1232 	push	acc
   0576 12r00r00      [24] 1233 	lcall	_printf
   0579 E5 81         [12] 1234 	mov	a,sp
   057B 24 FB         [12] 1235 	add	a,#0xfb
   057D F5 81         [12] 1236 	mov	sp,a
                           1237 ;	src/dhry21a.c:242: printf ("        should be:   %d\n", 7);
   057F 74 07         [12] 1238 	mov	a,#0x07
   0581 C0 E0         [24] 1239 	push	acc
   0583 E4            [12] 1240 	clr	a
   0584 C0 E0         [24] 1241 	push	acc
   0586 74r5E         [12] 1242 	mov	a,#__str_13
   0588 C0 E0         [24] 1243 	push	acc
   058A 74s01         [12] 1244 	mov	a,#(__str_13 >> 8)
   058C C0 E0         [24] 1245 	push	acc
   058E 74 80         [12] 1246 	mov	a,#0x80
   0590 C0 E0         [24] 1247 	push	acc
   0592 12r00r00      [24] 1248 	lcall	_printf
   0595 E5 81         [12] 1249 	mov	a,sp
   0597 24 FB         [12] 1250 	add	a,#0xfb
   0599 F5 81         [12] 1251 	mov	sp,a
                           1252 ;	src/dhry21a.c:243: printf ("Arr_2_Glob[8][7]:    %d\n", Arr_2_Glob[8][7]);
   059B 90r01rDC      [24] 1253 	mov	dptr,#(_Arr_2_Glob + 0x019e)
   059E E0            [24] 1254 	movx	a,@dptr
   059F FE            [12] 1255 	mov	r6,a
   05A0 A3            [24] 1256 	inc	dptr
   05A1 E0            [24] 1257 	movx	a,@dptr
   05A2 FF            [12] 1258 	mov	r7,a
   05A3 C0 06         [24] 1259 	push	ar6
   05A5 C0 07         [24] 1260 	push	ar7
   05A7 74rF4         [12] 1261 	mov	a,#__str_19
   05A9 C0 E0         [24] 1262 	push	acc
   05AB 74s01         [12] 1263 	mov	a,#(__str_19 >> 8)
   05AD C0 E0         [24] 1264 	push	acc
   05AF 74 80         [12] 1265 	mov	a,#0x80
   05B1 C0 E0         [24] 1266 	push	acc
   05B3 12r00r00      [24] 1267 	lcall	_printf
   05B6 E5 81         [12] 1268 	mov	a,sp
   05B8 24 FB         [12] 1269 	add	a,#0xfb
   05BA F5 81         [12] 1270 	mov	sp,a
                           1271 ;	src/dhry21a.c:244: printf ("        should be:   Number_Of_Runs + 10\n");
   05BC 74r0D         [12] 1272 	mov	a,#__str_20
   05BE C0 E0         [24] 1273 	push	acc
   05C0 74s02         [12] 1274 	mov	a,#(__str_20 >> 8)
   05C2 C0 E0         [24] 1275 	push	acc
   05C4 74 80         [12] 1276 	mov	a,#0x80
   05C6 C0 E0         [24] 1277 	push	acc
   05C8 12r00r00      [24] 1278 	lcall	_printf
   05CB 15 81         [12] 1279 	dec	sp
   05CD 15 81         [12] 1280 	dec	sp
   05CF 15 81         [12] 1281 	dec	sp
                           1282 ;	src/dhry21a.c:245: printf ("Ptr_Glob->\n");
   05D1 74r37         [12] 1283 	mov	a,#__str_21
   05D3 C0 E0         [24] 1284 	push	acc
   05D5 74s02         [12] 1285 	mov	a,#(__str_21 >> 8)
   05D7 C0 E0         [24] 1286 	push	acc
   05D9 74 80         [12] 1287 	mov	a,#0x80
   05DB C0 E0         [24] 1288 	push	acc
   05DD 12r00r00      [24] 1289 	lcall	_printf
   05E0 15 81         [12] 1290 	dec	sp
   05E2 15 81         [12] 1291 	dec	sp
   05E4 15 81         [12] 1292 	dec	sp
                           1293 ;	src/dhry21a.c:246: printf ("  Ptr_Comp:          %d\n", (int) Ptr_Glob->Ptr_Comp);
   05E6 90r00r00      [24] 1294 	mov	dptr,#_Ptr_Glob
   05E9 E0            [24] 1295 	movx	a,@dptr
   05EA FD            [12] 1296 	mov	r5,a
   05EB A3            [24] 1297 	inc	dptr
   05EC E0            [24] 1298 	movx	a,@dptr
   05ED FE            [12] 1299 	mov	r6,a
   05EE A3            [24] 1300 	inc	dptr
   05EF E0            [24] 1301 	movx	a,@dptr
   05F0 FF            [12] 1302 	mov	r7,a
   05F1 8D 82         [24] 1303 	mov	dpl,r5
   05F3 8E 83         [24] 1304 	mov	dph,r6
   05F5 8F F0         [24] 1305 	mov	b,r7
   05F7 12r00r00      [24] 1306 	lcall	__gptrget
   05FA FD            [12] 1307 	mov	r5,a
   05FB A3            [24] 1308 	inc	dptr
   05FC 12r00r00      [24] 1309 	lcall	__gptrget
   05FF FE            [12] 1310 	mov	r6,a
   0600 A3            [24] 1311 	inc	dptr
   0601 12r00r00      [24] 1312 	lcall	__gptrget
   0604 C0 05         [24] 1313 	push	ar5
   0606 C0 06         [24] 1314 	push	ar6
   0608 74r43         [12] 1315 	mov	a,#__str_22
   060A C0 E0         [24] 1316 	push	acc
   060C 74s02         [12] 1317 	mov	a,#(__str_22 >> 8)
   060E C0 E0         [24] 1318 	push	acc
   0610 74 80         [12] 1319 	mov	a,#0x80
   0612 C0 E0         [24] 1320 	push	acc
   0614 12r00r00      [24] 1321 	lcall	_printf
   0617 E5 81         [12] 1322 	mov	a,sp
   0619 24 FB         [12] 1323 	add	a,#0xfb
   061B F5 81         [12] 1324 	mov	sp,a
                           1325 ;	src/dhry21a.c:247: printf ("        should be:   (implementation-dependent)\n");
   061D 74r5C         [12] 1326 	mov	a,#__str_23
   061F C0 E0         [24] 1327 	push	acc
   0621 74s02         [12] 1328 	mov	a,#(__str_23 >> 8)
   0623 C0 E0         [24] 1329 	push	acc
   0625 74 80         [12] 1330 	mov	a,#0x80
   0627 C0 E0         [24] 1331 	push	acc
   0629 12r00r00      [24] 1332 	lcall	_printf
   062C 15 81         [12] 1333 	dec	sp
   062E 15 81         [12] 1334 	dec	sp
   0630 15 81         [12] 1335 	dec	sp
                           1336 ;	src/dhry21a.c:248: printf ("  Discr:             %d\n", Ptr_Glob->Discr);
   0632 90r00r00      [24] 1337 	mov	dptr,#_Ptr_Glob
   0635 E0            [24] 1338 	movx	a,@dptr
   0636 FD            [12] 1339 	mov	r5,a
   0637 A3            [24] 1340 	inc	dptr
   0638 E0            [24] 1341 	movx	a,@dptr
   0639 FE            [12] 1342 	mov	r6,a
   063A A3            [24] 1343 	inc	dptr
   063B E0            [24] 1344 	movx	a,@dptr
   063C FF            [12] 1345 	mov	r7,a
   063D 74 03         [12] 1346 	mov	a,#0x03
   063F 2D            [12] 1347 	add	a,r5
   0640 FD            [12] 1348 	mov	r5,a
   0641 E4            [12] 1349 	clr	a
   0642 3E            [12] 1350 	addc	a,r6
   0643 FE            [12] 1351 	mov	r6,a
   0644 8D 82         [24] 1352 	mov	dpl,r5
   0646 8E 83         [24] 1353 	mov	dph,r6
   0648 8F F0         [24] 1354 	mov	b,r7
   064A 12r00r00      [24] 1355 	lcall	__gptrget
   064D FD            [12] 1356 	mov	r5,a
   064E 7F 00         [12] 1357 	mov	r7,#0x00
   0650 C0 05         [24] 1358 	push	ar5
   0652 C0 07         [24] 1359 	push	ar7
   0654 74r8D         [12] 1360 	mov	a,#__str_24
   0656 C0 E0         [24] 1361 	push	acc
   0658 74s02         [12] 1362 	mov	a,#(__str_24 >> 8)
   065A C0 E0         [24] 1363 	push	acc
   065C 74 80         [12] 1364 	mov	a,#0x80
   065E C0 E0         [24] 1365 	push	acc
   0660 12r00r00      [24] 1366 	lcall	_printf
   0663 E5 81         [12] 1367 	mov	a,sp
   0665 24 FB         [12] 1368 	add	a,#0xfb
   0667 F5 81         [12] 1369 	mov	sp,a
                           1370 ;	src/dhry21a.c:249: printf ("        should be:   %d\n", 0);
   0669 E4            [12] 1371 	clr	a
   066A C0 E0         [24] 1372 	push	acc
   066C C0 E0         [24] 1373 	push	acc
   066E 74r5E         [12] 1374 	mov	a,#__str_13
   0670 C0 E0         [24] 1375 	push	acc
   0672 74s01         [12] 1376 	mov	a,#(__str_13 >> 8)
   0674 C0 E0         [24] 1377 	push	acc
   0676 74 80         [12] 1378 	mov	a,#0x80
   0678 C0 E0         [24] 1379 	push	acc
   067A 12r00r00      [24] 1380 	lcall	_printf
   067D E5 81         [12] 1381 	mov	a,sp
   067F 24 FB         [12] 1382 	add	a,#0xfb
   0681 F5 81         [12] 1383 	mov	sp,a
                           1384 ;	src/dhry21a.c:250: printf ("  Enum_Comp:         %d\n", Ptr_Glob->variant.var_1.Enum_Comp);
   0683 90r00r00      [24] 1385 	mov	dptr,#_Ptr_Glob
   0686 E0            [24] 1386 	movx	a,@dptr
   0687 FD            [12] 1387 	mov	r5,a
   0688 A3            [24] 1388 	inc	dptr
   0689 E0            [24] 1389 	movx	a,@dptr
   068A FE            [12] 1390 	mov	r6,a
   068B A3            [24] 1391 	inc	dptr
   068C E0            [24] 1392 	movx	a,@dptr
   068D FF            [12] 1393 	mov	r7,a
   068E 74 04         [12] 1394 	mov	a,#0x04
   0690 2D            [12] 1395 	add	a,r5
   0691 FD            [12] 1396 	mov	r5,a
   0692 E4            [12] 1397 	clr	a
   0693 3E            [12] 1398 	addc	a,r6
   0694 FE            [12] 1399 	mov	r6,a
   0695 8D 82         [24] 1400 	mov	dpl,r5
   0697 8E 83         [24] 1401 	mov	dph,r6
   0699 8F F0         [24] 1402 	mov	b,r7
   069B 12r00r00      [24] 1403 	lcall	__gptrget
   069E FD            [12] 1404 	mov	r5,a
   069F 7F 00         [12] 1405 	mov	r7,#0x00
   06A1 C0 05         [24] 1406 	push	ar5
   06A3 C0 07         [24] 1407 	push	ar7
   06A5 74rA6         [12] 1408 	mov	a,#__str_25
   06A7 C0 E0         [24] 1409 	push	acc
   06A9 74s02         [12] 1410 	mov	a,#(__str_25 >> 8)
   06AB C0 E0         [24] 1411 	push	acc
   06AD 74 80         [12] 1412 	mov	a,#0x80
   06AF C0 E0         [24] 1413 	push	acc
   06B1 12r00r00      [24] 1414 	lcall	_printf
   06B4 E5 81         [12] 1415 	mov	a,sp
   06B6 24 FB         [12] 1416 	add	a,#0xfb
   06B8 F5 81         [12] 1417 	mov	sp,a
                           1418 ;	src/dhry21a.c:251: printf ("        should be:   %d\n", 2);
   06BA 74 02         [12] 1419 	mov	a,#0x02
   06BC C0 E0         [24] 1420 	push	acc
   06BE E4            [12] 1421 	clr	a
   06BF C0 E0         [24] 1422 	push	acc
   06C1 74r5E         [12] 1423 	mov	a,#__str_13
   06C3 C0 E0         [24] 1424 	push	acc
   06C5 74s01         [12] 1425 	mov	a,#(__str_13 >> 8)
   06C7 C0 E0         [24] 1426 	push	acc
   06C9 74 80         [12] 1427 	mov	a,#0x80
   06CB C0 E0         [24] 1428 	push	acc
   06CD 12r00r00      [24] 1429 	lcall	_printf
   06D0 E5 81         [12] 1430 	mov	a,sp
   06D2 24 FB         [12] 1431 	add	a,#0xfb
   06D4 F5 81         [12] 1432 	mov	sp,a
                           1433 ;	src/dhry21a.c:252: printf ("  Int_Comp:          %d\n", Ptr_Glob->variant.var_1.Int_Comp);
   06D6 90r00r00      [24] 1434 	mov	dptr,#_Ptr_Glob
   06D9 E0            [24] 1435 	movx	a,@dptr
   06DA FD            [12] 1436 	mov	r5,a
   06DB A3            [24] 1437 	inc	dptr
   06DC E0            [24] 1438 	movx	a,@dptr
   06DD FE            [12] 1439 	mov	r6,a
   06DE A3            [24] 1440 	inc	dptr
   06DF E0            [24] 1441 	movx	a,@dptr
   06E0 FF            [12] 1442 	mov	r7,a
   06E1 74 05         [12] 1443 	mov	a,#0x05
   06E3 2D            [12] 1444 	add	a,r5
   06E4 FD            [12] 1445 	mov	r5,a
   06E5 E4            [12] 1446 	clr	a
   06E6 3E            [12] 1447 	addc	a,r6
   06E7 FE            [12] 1448 	mov	r6,a
   06E8 8D 82         [24] 1449 	mov	dpl,r5
   06EA 8E 83         [24] 1450 	mov	dph,r6
   06EC 8F F0         [24] 1451 	mov	b,r7
   06EE 12r00r00      [24] 1452 	lcall	__gptrget
   06F1 FD            [12] 1453 	mov	r5,a
   06F2 A3            [24] 1454 	inc	dptr
   06F3 12r00r00      [24] 1455 	lcall	__gptrget
   06F6 FE            [12] 1456 	mov	r6,a
   06F7 C0 05         [24] 1457 	push	ar5
   06F9 C0 06         [24] 1458 	push	ar6
   06FB 74rBF         [12] 1459 	mov	a,#__str_26
   06FD C0 E0         [24] 1460 	push	acc
   06FF 74s02         [12] 1461 	mov	a,#(__str_26 >> 8)
   0701 C0 E0         [24] 1462 	push	acc
   0703 74 80         [12] 1463 	mov	a,#0x80
   0705 C0 E0         [24] 1464 	push	acc
   0707 12r00r00      [24] 1465 	lcall	_printf
   070A E5 81         [12] 1466 	mov	a,sp
   070C 24 FB         [12] 1467 	add	a,#0xfb
   070E F5 81         [12] 1468 	mov	sp,a
                           1469 ;	src/dhry21a.c:253: printf ("        should be:   %d\n", 17);
   0710 74 11         [12] 1470 	mov	a,#0x11
   0712 C0 E0         [24] 1471 	push	acc
   0714 E4            [12] 1472 	clr	a
   0715 C0 E0         [24] 1473 	push	acc
   0717 74r5E         [12] 1474 	mov	a,#__str_13
   0719 C0 E0         [24] 1475 	push	acc
   071B 74s01         [12] 1476 	mov	a,#(__str_13 >> 8)
   071D C0 E0         [24] 1477 	push	acc
   071F 74 80         [12] 1478 	mov	a,#0x80
   0721 C0 E0         [24] 1479 	push	acc
   0723 12r00r00      [24] 1480 	lcall	_printf
   0726 E5 81         [12] 1481 	mov	a,sp
   0728 24 FB         [12] 1482 	add	a,#0xfb
   072A F5 81         [12] 1483 	mov	sp,a
                           1484 ;	src/dhry21a.c:254: printf ("  Str_Comp:          %s\n", Ptr_Glob->variant.var_1.Str_Comp);
   072C 90r00r00      [24] 1485 	mov	dptr,#_Ptr_Glob
   072F E0            [24] 1486 	movx	a,@dptr
   0730 FD            [12] 1487 	mov	r5,a
   0731 A3            [24] 1488 	inc	dptr
   0732 E0            [24] 1489 	movx	a,@dptr
   0733 FE            [12] 1490 	mov	r6,a
   0734 A3            [24] 1491 	inc	dptr
   0735 E0            [24] 1492 	movx	a,@dptr
   0736 FF            [12] 1493 	mov	r7,a
   0737 74 07         [12] 1494 	mov	a,#0x07
   0739 2D            [12] 1495 	add	a,r5
   073A FD            [12] 1496 	mov	r5,a
   073B E4            [12] 1497 	clr	a
   073C 3E            [12] 1498 	addc	a,r6
   073D FE            [12] 1499 	mov	r6,a
   073E C0 05         [24] 1500 	push	ar5
   0740 C0 06         [24] 1501 	push	ar6
   0742 C0 07         [24] 1502 	push	ar7
   0744 74rD8         [12] 1503 	mov	a,#__str_27
   0746 C0 E0         [24] 1504 	push	acc
   0748 74s02         [12] 1505 	mov	a,#(__str_27 >> 8)
   074A C0 E0         [24] 1506 	push	acc
   074C 74 80         [12] 1507 	mov	a,#0x80
   074E C0 E0         [24] 1508 	push	acc
   0750 12r00r00      [24] 1509 	lcall	_printf
   0753 E5 81         [12] 1510 	mov	a,sp
   0755 24 FA         [12] 1511 	add	a,#0xfa
   0757 F5 81         [12] 1512 	mov	sp,a
                           1513 ;	src/dhry21a.c:255: printf ("        should be:   DHRYSTONE PROGRAM, SOME STRING\n");
   0759 74rF1         [12] 1514 	mov	a,#__str_28
   075B C0 E0         [24] 1515 	push	acc
   075D 74s02         [12] 1516 	mov	a,#(__str_28 >> 8)
   075F C0 E0         [24] 1517 	push	acc
   0761 74 80         [12] 1518 	mov	a,#0x80
   0763 C0 E0         [24] 1519 	push	acc
   0765 12r00r00      [24] 1520 	lcall	_printf
   0768 15 81         [12] 1521 	dec	sp
   076A 15 81         [12] 1522 	dec	sp
   076C 15 81         [12] 1523 	dec	sp
                           1524 ;	src/dhry21a.c:256: printf ("Next_Ptr_Glob->\n");
   076E 74r26         [12] 1525 	mov	a,#__str_29
   0770 C0 E0         [24] 1526 	push	acc
   0772 74s03         [12] 1527 	mov	a,#(__str_29 >> 8)
   0774 C0 E0         [24] 1528 	push	acc
   0776 74 80         [12] 1529 	mov	a,#0x80
   0778 C0 E0         [24] 1530 	push	acc
   077A 12r00r00      [24] 1531 	lcall	_printf
   077D 15 81         [12] 1532 	dec	sp
   077F 15 81         [12] 1533 	dec	sp
   0781 15 81         [12] 1534 	dec	sp
                           1535 ;	src/dhry21a.c:257: printf ("  Ptr_Comp:          %d\n", (int) Next_Ptr_Glob->Ptr_Comp);
   0783 90r00r03      [24] 1536 	mov	dptr,#_Next_Ptr_Glob
   0786 E0            [24] 1537 	movx	a,@dptr
   0787 FD            [12] 1538 	mov	r5,a
   0788 A3            [24] 1539 	inc	dptr
   0789 E0            [24] 1540 	movx	a,@dptr
   078A FE            [12] 1541 	mov	r6,a
   078B A3            [24] 1542 	inc	dptr
   078C E0            [24] 1543 	movx	a,@dptr
   078D FF            [12] 1544 	mov	r7,a
   078E 8D 82         [24] 1545 	mov	dpl,r5
   0790 8E 83         [24] 1546 	mov	dph,r6
   0792 8F F0         [24] 1547 	mov	b,r7
   0794 12r00r00      [24] 1548 	lcall	__gptrget
   0797 FD            [12] 1549 	mov	r5,a
   0798 A3            [24] 1550 	inc	dptr
   0799 12r00r00      [24] 1551 	lcall	__gptrget
   079C FE            [12] 1552 	mov	r6,a
   079D A3            [24] 1553 	inc	dptr
   079E 12r00r00      [24] 1554 	lcall	__gptrget
   07A1 C0 05         [24] 1555 	push	ar5
   07A3 C0 06         [24] 1556 	push	ar6
   07A5 74r43         [12] 1557 	mov	a,#__str_22
   07A7 C0 E0         [24] 1558 	push	acc
   07A9 74s02         [12] 1559 	mov	a,#(__str_22 >> 8)
   07AB C0 E0         [24] 1560 	push	acc
   07AD 74 80         [12] 1561 	mov	a,#0x80
   07AF C0 E0         [24] 1562 	push	acc
   07B1 12r00r00      [24] 1563 	lcall	_printf
   07B4 E5 81         [12] 1564 	mov	a,sp
   07B6 24 FB         [12] 1565 	add	a,#0xfb
   07B8 F5 81         [12] 1566 	mov	sp,a
                           1567 ;	src/dhry21a.c:258: printf ("        should be:   (implementation-dependent), same as above\n");
   07BA 74r37         [12] 1568 	mov	a,#__str_30
   07BC C0 E0         [24] 1569 	push	acc
   07BE 74s03         [12] 1570 	mov	a,#(__str_30 >> 8)
   07C0 C0 E0         [24] 1571 	push	acc
   07C2 74 80         [12] 1572 	mov	a,#0x80
   07C4 C0 E0         [24] 1573 	push	acc
   07C6 12r00r00      [24] 1574 	lcall	_printf
   07C9 15 81         [12] 1575 	dec	sp
   07CB 15 81         [12] 1576 	dec	sp
   07CD 15 81         [12] 1577 	dec	sp
                           1578 ;	src/dhry21a.c:259: printf ("  Discr:             %d\n", Next_Ptr_Glob->Discr);
   07CF 90r00r03      [24] 1579 	mov	dptr,#_Next_Ptr_Glob
   07D2 E0            [24] 1580 	movx	a,@dptr
   07D3 FD            [12] 1581 	mov	r5,a
   07D4 A3            [24] 1582 	inc	dptr
   07D5 E0            [24] 1583 	movx	a,@dptr
   07D6 FE            [12] 1584 	mov	r6,a
   07D7 A3            [24] 1585 	inc	dptr
   07D8 E0            [24] 1586 	movx	a,@dptr
   07D9 FF            [12] 1587 	mov	r7,a
   07DA 74 03         [12] 1588 	mov	a,#0x03
   07DC 2D            [12] 1589 	add	a,r5
   07DD FD            [12] 1590 	mov	r5,a
   07DE E4            [12] 1591 	clr	a
   07DF 3E            [12] 1592 	addc	a,r6
   07E0 FE            [12] 1593 	mov	r6,a
   07E1 8D 82         [24] 1594 	mov	dpl,r5
   07E3 8E 83         [24] 1595 	mov	dph,r6
   07E5 8F F0         [24] 1596 	mov	b,r7
   07E7 12r00r00      [24] 1597 	lcall	__gptrget
   07EA FD            [12] 1598 	mov	r5,a
   07EB 7F 00         [12] 1599 	mov	r7,#0x00
   07ED C0 05         [24] 1600 	push	ar5
   07EF C0 07         [24] 1601 	push	ar7
   07F1 74r8D         [12] 1602 	mov	a,#__str_24
   07F3 C0 E0         [24] 1603 	push	acc
   07F5 74s02         [12] 1604 	mov	a,#(__str_24 >> 8)
   07F7 C0 E0         [24] 1605 	push	acc
   07F9 74 80         [12] 1606 	mov	a,#0x80
   07FB C0 E0         [24] 1607 	push	acc
   07FD 12r00r00      [24] 1608 	lcall	_printf
   0800 E5 81         [12] 1609 	mov	a,sp
   0802 24 FB         [12] 1610 	add	a,#0xfb
   0804 F5 81         [12] 1611 	mov	sp,a
                           1612 ;	src/dhry21a.c:260: printf ("        should be:   %d\n", 0);
   0806 E4            [12] 1613 	clr	a
   0807 C0 E0         [24] 1614 	push	acc
   0809 C0 E0         [24] 1615 	push	acc
   080B 74r5E         [12] 1616 	mov	a,#__str_13
   080D C0 E0         [24] 1617 	push	acc
   080F 74s01         [12] 1618 	mov	a,#(__str_13 >> 8)
   0811 C0 E0         [24] 1619 	push	acc
   0813 74 80         [12] 1620 	mov	a,#0x80
   0815 C0 E0         [24] 1621 	push	acc
   0817 12r00r00      [24] 1622 	lcall	_printf
   081A E5 81         [12] 1623 	mov	a,sp
   081C 24 FB         [12] 1624 	add	a,#0xfb
   081E F5 81         [12] 1625 	mov	sp,a
                           1626 ;	src/dhry21a.c:261: printf ("  Enum_Comp:         %d\n", Next_Ptr_Glob->variant.var_1.Enum_Comp);
   0820 90r00r03      [24] 1627 	mov	dptr,#_Next_Ptr_Glob
   0823 E0            [24] 1628 	movx	a,@dptr
   0824 FD            [12] 1629 	mov	r5,a
   0825 A3            [24] 1630 	inc	dptr
   0826 E0            [24] 1631 	movx	a,@dptr
   0827 FE            [12] 1632 	mov	r6,a
   0828 A3            [24] 1633 	inc	dptr
   0829 E0            [24] 1634 	movx	a,@dptr
   082A FF            [12] 1635 	mov	r7,a
   082B 74 04         [12] 1636 	mov	a,#0x04
   082D 2D            [12] 1637 	add	a,r5
   082E FD            [12] 1638 	mov	r5,a
   082F E4            [12] 1639 	clr	a
   0830 3E            [12] 1640 	addc	a,r6
   0831 FE            [12] 1641 	mov	r6,a
   0832 8D 82         [24] 1642 	mov	dpl,r5
   0834 8E 83         [24] 1643 	mov	dph,r6
   0836 8F F0         [24] 1644 	mov	b,r7
   0838 12r00r00      [24] 1645 	lcall	__gptrget
   083B FD            [12] 1646 	mov	r5,a
   083C 7F 00         [12] 1647 	mov	r7,#0x00
   083E C0 05         [24] 1648 	push	ar5
   0840 C0 07         [24] 1649 	push	ar7
   0842 74rA6         [12] 1650 	mov	a,#__str_25
   0844 C0 E0         [24] 1651 	push	acc
   0846 74s02         [12] 1652 	mov	a,#(__str_25 >> 8)
   0848 C0 E0         [24] 1653 	push	acc
   084A 74 80         [12] 1654 	mov	a,#0x80
   084C C0 E0         [24] 1655 	push	acc
   084E 12r00r00      [24] 1656 	lcall	_printf
   0851 E5 81         [12] 1657 	mov	a,sp
   0853 24 FB         [12] 1658 	add	a,#0xfb
   0855 F5 81         [12] 1659 	mov	sp,a
                           1660 ;	src/dhry21a.c:262: printf ("        should be:   %d\n", 1);
   0857 74 01         [12] 1661 	mov	a,#0x01
   0859 C0 E0         [24] 1662 	push	acc
   085B E4            [12] 1663 	clr	a
   085C C0 E0         [24] 1664 	push	acc
   085E 74r5E         [12] 1665 	mov	a,#__str_13
   0860 C0 E0         [24] 1666 	push	acc
   0862 74s01         [12] 1667 	mov	a,#(__str_13 >> 8)
   0864 C0 E0         [24] 1668 	push	acc
   0866 74 80         [12] 1669 	mov	a,#0x80
   0868 C0 E0         [24] 1670 	push	acc
   086A 12r00r00      [24] 1671 	lcall	_printf
   086D E5 81         [12] 1672 	mov	a,sp
   086F 24 FB         [12] 1673 	add	a,#0xfb
   0871 F5 81         [12] 1674 	mov	sp,a
                           1675 ;	src/dhry21a.c:263: printf ("  Int_Comp:          %d\n", Next_Ptr_Glob->variant.var_1.Int_Comp);
   0873 90r00r03      [24] 1676 	mov	dptr,#_Next_Ptr_Glob
   0876 E0            [24] 1677 	movx	a,@dptr
   0877 FD            [12] 1678 	mov	r5,a
   0878 A3            [24] 1679 	inc	dptr
   0879 E0            [24] 1680 	movx	a,@dptr
   087A FE            [12] 1681 	mov	r6,a
   087B A3            [24] 1682 	inc	dptr
   087C E0            [24] 1683 	movx	a,@dptr
   087D FF            [12] 1684 	mov	r7,a
   087E 74 05         [12] 1685 	mov	a,#0x05
   0880 2D            [12] 1686 	add	a,r5
   0881 FD            [12] 1687 	mov	r5,a
   0882 E4            [12] 1688 	clr	a
   0883 3E            [12] 1689 	addc	a,r6
   0884 FE            [12] 1690 	mov	r6,a
   0885 8D 82         [24] 1691 	mov	dpl,r5
   0887 8E 83         [24] 1692 	mov	dph,r6
   0889 8F F0         [24] 1693 	mov	b,r7
   088B 12r00r00      [24] 1694 	lcall	__gptrget
   088E FD            [12] 1695 	mov	r5,a
   088F A3            [24] 1696 	inc	dptr
   0890 12r00r00      [24] 1697 	lcall	__gptrget
   0893 FE            [12] 1698 	mov	r6,a
   0894 C0 05         [24] 1699 	push	ar5
   0896 C0 06         [24] 1700 	push	ar6
   0898 74rBF         [12] 1701 	mov	a,#__str_26
   089A C0 E0         [24] 1702 	push	acc
   089C 74s02         [12] 1703 	mov	a,#(__str_26 >> 8)
   089E C0 E0         [24] 1704 	push	acc
   08A0 74 80         [12] 1705 	mov	a,#0x80
   08A2 C0 E0         [24] 1706 	push	acc
   08A4 12r00r00      [24] 1707 	lcall	_printf
   08A7 E5 81         [12] 1708 	mov	a,sp
   08A9 24 FB         [12] 1709 	add	a,#0xfb
   08AB F5 81         [12] 1710 	mov	sp,a
                           1711 ;	src/dhry21a.c:264: printf ("        should be:   %d\n", 18);
   08AD 74 12         [12] 1712 	mov	a,#0x12
   08AF C0 E0         [24] 1713 	push	acc
   08B1 E4            [12] 1714 	clr	a
   08B2 C0 E0         [24] 1715 	push	acc
   08B4 74r5E         [12] 1716 	mov	a,#__str_13
   08B6 C0 E0         [24] 1717 	push	acc
   08B8 74s01         [12] 1718 	mov	a,#(__str_13 >> 8)
   08BA C0 E0         [24] 1719 	push	acc
   08BC 74 80         [12] 1720 	mov	a,#0x80
   08BE C0 E0         [24] 1721 	push	acc
   08C0 12r00r00      [24] 1722 	lcall	_printf
   08C3 E5 81         [12] 1723 	mov	a,sp
   08C5 24 FB         [12] 1724 	add	a,#0xfb
   08C7 F5 81         [12] 1725 	mov	sp,a
                           1726 ;	src/dhry21a.c:265: printf ("  Str_Comp:          %s\n", Next_Ptr_Glob->variant.var_1.Str_Comp);
   08C9 90r00r03      [24] 1727 	mov	dptr,#_Next_Ptr_Glob
   08CC E0            [24] 1728 	movx	a,@dptr
   08CD FD            [12] 1729 	mov	r5,a
   08CE A3            [24] 1730 	inc	dptr
   08CF E0            [24] 1731 	movx	a,@dptr
   08D0 FE            [12] 1732 	mov	r6,a
   08D1 A3            [24] 1733 	inc	dptr
   08D2 E0            [24] 1734 	movx	a,@dptr
   08D3 FF            [12] 1735 	mov	r7,a
   08D4 74 07         [12] 1736 	mov	a,#0x07
   08D6 2D            [12] 1737 	add	a,r5
   08D7 FD            [12] 1738 	mov	r5,a
   08D8 E4            [12] 1739 	clr	a
   08D9 3E            [12] 1740 	addc	a,r6
   08DA FE            [12] 1741 	mov	r6,a
   08DB C0 05         [24] 1742 	push	ar5
   08DD C0 06         [24] 1743 	push	ar6
   08DF C0 07         [24] 1744 	push	ar7
   08E1 74rD8         [12] 1745 	mov	a,#__str_27
   08E3 C0 E0         [24] 1746 	push	acc
   08E5 74s02         [12] 1747 	mov	a,#(__str_27 >> 8)
   08E7 C0 E0         [24] 1748 	push	acc
   08E9 74 80         [12] 1749 	mov	a,#0x80
   08EB C0 E0         [24] 1750 	push	acc
   08ED 12r00r00      [24] 1751 	lcall	_printf
   08F0 E5 81         [12] 1752 	mov	a,sp
   08F2 24 FA         [12] 1753 	add	a,#0xfa
   08F4 F5 81         [12] 1754 	mov	sp,a
                           1755 ;	src/dhry21a.c:266: printf ("        should be:   DHRYSTONE PROGRAM, SOME STRING\n");
   08F6 74rF1         [12] 1756 	mov	a,#__str_28
   08F8 C0 E0         [24] 1757 	push	acc
   08FA 74s02         [12] 1758 	mov	a,#(__str_28 >> 8)
   08FC C0 E0         [24] 1759 	push	acc
   08FE 74 80         [12] 1760 	mov	a,#0x80
   0900 C0 E0         [24] 1761 	push	acc
   0902 12r00r00      [24] 1762 	lcall	_printf
   0905 15 81         [12] 1763 	dec	sp
   0907 15 81         [12] 1764 	dec	sp
   0909 15 81         [12] 1765 	dec	sp
                           1766 ;	src/dhry21a.c:267: printf ("Int_1_Loc:           %d\n", Int_1_Loc);
   090B 90r05r44      [24] 1767 	mov	dptr,#_main_Int_1_Loc_1_73
   090E E0            [24] 1768 	movx	a,@dptr
   090F C0 E0         [24] 1769 	push	acc
   0911 A3            [24] 1770 	inc	dptr
   0912 E0            [24] 1771 	movx	a,@dptr
   0913 C0 E0         [24] 1772 	push	acc
   0915 74r77         [12] 1773 	mov	a,#__str_31
   0917 C0 E0         [24] 1774 	push	acc
   0919 74s03         [12] 1775 	mov	a,#(__str_31 >> 8)
   091B C0 E0         [24] 1776 	push	acc
   091D 74 80         [12] 1777 	mov	a,#0x80
   091F C0 E0         [24] 1778 	push	acc
   0921 12r00r00      [24] 1779 	lcall	_printf
   0924 E5 81         [12] 1780 	mov	a,sp
   0926 24 FB         [12] 1781 	add	a,#0xfb
   0928 F5 81         [12] 1782 	mov	sp,a
                           1783 ;	src/dhry21a.c:268: printf ("        should be:   %d\n", 5);
   092A 74 05         [12] 1784 	mov	a,#0x05
   092C C0 E0         [24] 1785 	push	acc
   092E E4            [12] 1786 	clr	a
   092F C0 E0         [24] 1787 	push	acc
   0931 74r5E         [12] 1788 	mov	a,#__str_13
   0933 C0 E0         [24] 1789 	push	acc
   0935 74s01         [12] 1790 	mov	a,#(__str_13 >> 8)
   0937 C0 E0         [24] 1791 	push	acc
   0939 74 80         [12] 1792 	mov	a,#0x80
   093B C0 E0         [24] 1793 	push	acc
   093D 12r00r00      [24] 1794 	lcall	_printf
   0940 E5 81         [12] 1795 	mov	a,sp
   0942 24 FB         [12] 1796 	add	a,#0xfb
   0944 F5 81         [12] 1797 	mov	sp,a
                           1798 ;	src/dhry21a.c:269: printf ("Int_2_Loc:           %d\n", Int_2_Loc);
   0946 90r05r46      [24] 1799 	mov	dptr,#_main_Int_2_Loc_1_73
   0949 E0            [24] 1800 	movx	a,@dptr
   094A C0 E0         [24] 1801 	push	acc
   094C A3            [24] 1802 	inc	dptr
   094D E0            [24] 1803 	movx	a,@dptr
   094E C0 E0         [24] 1804 	push	acc
   0950 74r90         [12] 1805 	mov	a,#__str_32
   0952 C0 E0         [24] 1806 	push	acc
   0954 74s03         [12] 1807 	mov	a,#(__str_32 >> 8)
   0956 C0 E0         [24] 1808 	push	acc
   0958 74 80         [12] 1809 	mov	a,#0x80
   095A C0 E0         [24] 1810 	push	acc
   095C 12r00r00      [24] 1811 	lcall	_printf
   095F E5 81         [12] 1812 	mov	a,sp
   0961 24 FB         [12] 1813 	add	a,#0xfb
   0963 F5 81         [12] 1814 	mov	sp,a
                           1815 ;	src/dhry21a.c:270: printf ("        should be:   %d\n", 13);
   0965 74 0D         [12] 1816 	mov	a,#0x0D
   0967 C0 E0         [24] 1817 	push	acc
   0969 E4            [12] 1818 	clr	a
   096A C0 E0         [24] 1819 	push	acc
   096C 74r5E         [12] 1820 	mov	a,#__str_13
   096E C0 E0         [24] 1821 	push	acc
   0970 74s01         [12] 1822 	mov	a,#(__str_13 >> 8)
   0972 C0 E0         [24] 1823 	push	acc
   0974 74 80         [12] 1824 	mov	a,#0x80
   0976 C0 E0         [24] 1825 	push	acc
   0978 12r00r00      [24] 1826 	lcall	_printf
   097B E5 81         [12] 1827 	mov	a,sp
   097D 24 FB         [12] 1828 	add	a,#0xfb
   097F F5 81         [12] 1829 	mov	sp,a
                           1830 ;	src/dhry21a.c:271: printf ("Int_3_Loc:           %d\n", Int_3_Loc);
   0981 90r05r48      [24] 1831 	mov	dptr,#_main_Int_3_Loc_1_73
   0984 E0            [24] 1832 	movx	a,@dptr
   0985 C0 E0         [24] 1833 	push	acc
   0987 A3            [24] 1834 	inc	dptr
   0988 E0            [24] 1835 	movx	a,@dptr
   0989 C0 E0         [24] 1836 	push	acc
   098B 74rA9         [12] 1837 	mov	a,#__str_33
   098D C0 E0         [24] 1838 	push	acc
   098F 74s03         [12] 1839 	mov	a,#(__str_33 >> 8)
   0991 C0 E0         [24] 1840 	push	acc
   0993 74 80         [12] 1841 	mov	a,#0x80
   0995 C0 E0         [24] 1842 	push	acc
   0997 12r00r00      [24] 1843 	lcall	_printf
   099A E5 81         [12] 1844 	mov	a,sp
   099C 24 FB         [12] 1845 	add	a,#0xfb
   099E F5 81         [12] 1846 	mov	sp,a
                           1847 ;	src/dhry21a.c:272: printf ("        should be:   %d\n", 7);
   09A0 74 07         [12] 1848 	mov	a,#0x07
   09A2 C0 E0         [24] 1849 	push	acc
   09A4 E4            [12] 1850 	clr	a
   09A5 C0 E0         [24] 1851 	push	acc
   09A7 74r5E         [12] 1852 	mov	a,#__str_13
   09A9 C0 E0         [24] 1853 	push	acc
   09AB 74s01         [12] 1854 	mov	a,#(__str_13 >> 8)
   09AD C0 E0         [24] 1855 	push	acc
   09AF 74 80         [12] 1856 	mov	a,#0x80
   09B1 C0 E0         [24] 1857 	push	acc
   09B3 12r00r00      [24] 1858 	lcall	_printf
   09B6 E5 81         [12] 1859 	mov	a,sp
   09B8 24 FB         [12] 1860 	add	a,#0xfb
   09BA F5 81         [12] 1861 	mov	sp,a
                           1862 ;	src/dhry21a.c:273: printf ("Enum_Loc:            %d\n", Enum_Loc);
   09BC 90r05r4A      [24] 1863 	mov	dptr,#_main_Enum_Loc_1_73
   09BF E0            [24] 1864 	movx	a,@dptr
   09C0 FF            [12] 1865 	mov	r7,a
   09C1 7E 00         [12] 1866 	mov	r6,#0x00
   09C3 C0 07         [24] 1867 	push	ar7
   09C5 C0 06         [24] 1868 	push	ar6
   09C7 74rC2         [12] 1869 	mov	a,#__str_34
   09C9 C0 E0         [24] 1870 	push	acc
   09CB 74s03         [12] 1871 	mov	a,#(__str_34 >> 8)
   09CD C0 E0         [24] 1872 	push	acc
   09CF 74 80         [12] 1873 	mov	a,#0x80
   09D1 C0 E0         [24] 1874 	push	acc
   09D3 12r00r00      [24] 1875 	lcall	_printf
   09D6 E5 81         [12] 1876 	mov	a,sp
   09D8 24 FB         [12] 1877 	add	a,#0xfb
   09DA F5 81         [12] 1878 	mov	sp,a
                           1879 ;	src/dhry21a.c:274: printf ("        should be:   %d\n", 1);
   09DC 74 01         [12] 1880 	mov	a,#0x01
   09DE C0 E0         [24] 1881 	push	acc
   09E0 E4            [12] 1882 	clr	a
   09E1 C0 E0         [24] 1883 	push	acc
   09E3 74r5E         [12] 1884 	mov	a,#__str_13
   09E5 C0 E0         [24] 1885 	push	acc
   09E7 74s01         [12] 1886 	mov	a,#(__str_13 >> 8)
   09E9 C0 E0         [24] 1887 	push	acc
   09EB 74 80         [12] 1888 	mov	a,#0x80
   09ED C0 E0         [24] 1889 	push	acc
   09EF 12r00r00      [24] 1890 	lcall	_printf
   09F2 E5 81         [12] 1891 	mov	a,sp
   09F4 24 FB         [12] 1892 	add	a,#0xfb
   09F6 F5 81         [12] 1893 	mov	sp,a
                           1894 ;	src/dhry21a.c:275: printf ("Str_1_Loc:           %s\n", Str_1_Loc);
   09F8 74r4B         [12] 1895 	mov	a,#_main_Str_1_Loc_1_73
   09FA C0 E0         [24] 1896 	push	acc
   09FC 74s05         [12] 1897 	mov	a,#(_main_Str_1_Loc_1_73 >> 8)
   09FE C0 E0         [24] 1898 	push	acc
   0A00 E4            [12] 1899 	clr	a
   0A01 C0 E0         [24] 1900 	push	acc
   0A03 74rDB         [12] 1901 	mov	a,#__str_35
   0A05 C0 E0         [24] 1902 	push	acc
   0A07 74s03         [12] 1903 	mov	a,#(__str_35 >> 8)
   0A09 C0 E0         [24] 1904 	push	acc
   0A0B 74 80         [12] 1905 	mov	a,#0x80
   0A0D C0 E0         [24] 1906 	push	acc
   0A0F 12r00r00      [24] 1907 	lcall	_printf
   0A12 E5 81         [12] 1908 	mov	a,sp
   0A14 24 FA         [12] 1909 	add	a,#0xfa
   0A16 F5 81         [12] 1910 	mov	sp,a
                           1911 ;	src/dhry21a.c:276: printf ("        should be:   DHRYSTONE PROGRAM, 1'ST STRING\n");
   0A18 74rF4         [12] 1912 	mov	a,#__str_36
   0A1A C0 E0         [24] 1913 	push	acc
   0A1C 74s03         [12] 1914 	mov	a,#(__str_36 >> 8)
   0A1E C0 E0         [24] 1915 	push	acc
   0A20 74 80         [12] 1916 	mov	a,#0x80
   0A22 C0 E0         [24] 1917 	push	acc
   0A24 12r00r00      [24] 1918 	lcall	_printf
   0A27 15 81         [12] 1919 	dec	sp
   0A29 15 81         [12] 1920 	dec	sp
   0A2B 15 81         [12] 1921 	dec	sp
                           1922 ;	src/dhry21a.c:277: printf ("Str_2_Loc:           %s\n", Str_2_Loc);
   0A2D 74r6A         [12] 1923 	mov	a,#_main_Str_2_Loc_1_73
   0A2F C0 E0         [24] 1924 	push	acc
   0A31 74s05         [12] 1925 	mov	a,#(_main_Str_2_Loc_1_73 >> 8)
   0A33 C0 E0         [24] 1926 	push	acc
   0A35 E4            [12] 1927 	clr	a
   0A36 C0 E0         [24] 1928 	push	acc
   0A38 74r29         [12] 1929 	mov	a,#__str_37
   0A3A C0 E0         [24] 1930 	push	acc
   0A3C 74s04         [12] 1931 	mov	a,#(__str_37 >> 8)
   0A3E C0 E0         [24] 1932 	push	acc
   0A40 74 80         [12] 1933 	mov	a,#0x80
   0A42 C0 E0         [24] 1934 	push	acc
   0A44 12r00r00      [24] 1935 	lcall	_printf
   0A47 E5 81         [12] 1936 	mov	a,sp
   0A49 24 FA         [12] 1937 	add	a,#0xfa
   0A4B F5 81         [12] 1938 	mov	sp,a
                           1939 ;	src/dhry21a.c:278: printf ("        should be:   DHRYSTONE PROGRAM, 2'ND STRING\n");
   0A4D 74r42         [12] 1940 	mov	a,#__str_38
   0A4F C0 E0         [24] 1941 	push	acc
   0A51 74s04         [12] 1942 	mov	a,#(__str_38 >> 8)
   0A53 C0 E0         [24] 1943 	push	acc
   0A55 74 80         [12] 1944 	mov	a,#0x80
   0A57 C0 E0         [24] 1945 	push	acc
   0A59 12r00r00      [24] 1946 	lcall	_printf
   0A5C 15 81         [12] 1947 	dec	sp
   0A5E 15 81         [12] 1948 	dec	sp
   0A60 15 81         [12] 1949 	dec	sp
                           1950 ;	src/dhry21a.c:279: printf ("\n");
   0A62 74r62         [12] 1951 	mov	a,#__str_5
   0A64 C0 E0         [24] 1952 	push	acc
   0A66 74s00         [12] 1953 	mov	a,#(__str_5 >> 8)
   0A68 C0 E0         [24] 1954 	push	acc
   0A6A 74 80         [12] 1955 	mov	a,#0x80
   0A6C C0 E0         [24] 1956 	push	acc
   0A6E 12r00r00      [24] 1957 	lcall	_printf
   0A71 15 81         [12] 1958 	dec	sp
   0A73 15 81         [12] 1959 	dec	sp
   0A75 15 81         [12] 1960 	dec	sp
                           1961 ;	src/dhry21a.c:283: msecs_end = msecs_end - msecs_start;
   0A77 90r05r20      [24] 1962 	mov	dptr,#_msecs_start
   0A7A E0            [24] 1963 	movx	a,@dptr
   0A7B FC            [12] 1964 	mov	r4,a
   0A7C A3            [24] 1965 	inc	dptr
   0A7D E0            [24] 1966 	movx	a,@dptr
   0A7E FD            [12] 1967 	mov	r5,a
   0A7F A3            [24] 1968 	inc	dptr
   0A80 E0            [24] 1969 	movx	a,@dptr
   0A81 FE            [12] 1970 	mov	r6,a
   0A82 A3            [24] 1971 	inc	dptr
   0A83 E0            [24] 1972 	movx	a,@dptr
   0A84 FF            [12] 1973 	mov	r7,a
   0A85 90r05r24      [24] 1974 	mov	dptr,#_msecs_end
   0A88 E0            [24] 1975 	movx	a,@dptr
   0A89 F8            [12] 1976 	mov	r0,a
   0A8A A3            [24] 1977 	inc	dptr
   0A8B E0            [24] 1978 	movx	a,@dptr
   0A8C F9            [12] 1979 	mov	r1,a
   0A8D A3            [24] 1980 	inc	dptr
   0A8E E0            [24] 1981 	movx	a,@dptr
   0A8F FA            [12] 1982 	mov	r2,a
   0A90 A3            [24] 1983 	inc	dptr
   0A91 E0            [24] 1984 	movx	a,@dptr
   0A92 FB            [12] 1985 	mov	r3,a
   0A93 90r05r24      [24] 1986 	mov	dptr,#_msecs_end
   0A96 E8            [12] 1987 	mov	a,r0
   0A97 C3            [12] 1988 	clr	c
   0A98 9C            [12] 1989 	subb	a,r4
   0A99 F0            [24] 1990 	movx	@dptr,a
   0A9A E9            [12] 1991 	mov	a,r1
   0A9B 9D            [12] 1992 	subb	a,r5
   0A9C A3            [24] 1993 	inc	dptr
   0A9D F0            [24] 1994 	movx	@dptr,a
   0A9E EA            [12] 1995 	mov	a,r2
   0A9F 9E            [12] 1996 	subb	a,r6
   0AA0 A3            [24] 1997 	inc	dptr
   0AA1 F0            [24] 1998 	movx	@dptr,a
   0AA2 EB            [12] 1999 	mov	a,r3
   0AA3 9F            [12] 2000 	subb	a,r7
   0AA4 A3            [24] 2001 	inc	dptr
   0AA5 F0            [24] 2002 	movx	@dptr,a
                           2003 ;	src/dhry21a.c:287: (uint32_t)(msecs_end - 1000*(msecs_end/1000)));
   0AA6 90r05r24      [24] 2004 	mov	dptr,#_msecs_end
   0AA9 E0            [24] 2005 	movx	a,@dptr
   0AAA FC            [12] 2006 	mov	r4,a
   0AAB A3            [24] 2007 	inc	dptr
   0AAC E0            [24] 2008 	movx	a,@dptr
   0AAD FD            [12] 2009 	mov	r5,a
   0AAE A3            [24] 2010 	inc	dptr
   0AAF E0            [24] 2011 	movx	a,@dptr
   0AB0 FE            [12] 2012 	mov	r6,a
   0AB1 A3            [24] 2013 	inc	dptr
   0AB2 E0            [24] 2014 	movx	a,@dptr
   0AB3 FF            [12] 2015 	mov	r7,a
   0AB4 90r00r00      [24] 2016 	mov	dptr,#__divulong_PARM_2
   0AB7 74 E8         [12] 2017 	mov	a,#0xE8
   0AB9 F0            [24] 2018 	movx	@dptr,a
   0ABA 74 03         [12] 2019 	mov	a,#0x03
   0ABC A3            [24] 2020 	inc	dptr
   0ABD F0            [24] 2021 	movx	@dptr,a
   0ABE E4            [12] 2022 	clr	a
   0ABF A3            [24] 2023 	inc	dptr
   0AC0 F0            [24] 2024 	movx	@dptr,a
   0AC1 E4            [12] 2025 	clr	a
   0AC2 A3            [24] 2026 	inc	dptr
   0AC3 F0            [24] 2027 	movx	@dptr,a
   0AC4 8C 82         [24] 2028 	mov	dpl,r4
   0AC6 8D 83         [24] 2029 	mov	dph,r5
   0AC8 8E F0         [24] 2030 	mov	b,r6
   0ACA EF            [12] 2031 	mov	a,r7
   0ACB C0 07         [24] 2032 	push	ar7
   0ACD C0 06         [24] 2033 	push	ar6
   0ACF C0 05         [24] 2034 	push	ar5
   0AD1 C0 04         [24] 2035 	push	ar4
   0AD3 12r00r00      [24] 2036 	lcall	__divulong
   0AD6 85 82*00      [24] 2037 	mov	_main_sloc0_1_0,dpl
   0AD9 85 83*01      [24] 2038 	mov	(_main_sloc0_1_0 + 1),dph
   0ADC 85 F0*02      [24] 2039 	mov	(_main_sloc0_1_0 + 2),b
   0ADF F5*03         [12] 2040 	mov	(_main_sloc0_1_0 + 3),a
   0AE1 90r00r00      [24] 2041 	mov	dptr,#__mullong_PARM_2
   0AE4 E5*00         [12] 2042 	mov	a,_main_sloc0_1_0
   0AE6 F0            [24] 2043 	movx	@dptr,a
   0AE7 E5*01         [12] 2044 	mov	a,(_main_sloc0_1_0 + 1)
   0AE9 A3            [24] 2045 	inc	dptr
   0AEA F0            [24] 2046 	movx	@dptr,a
   0AEB E5*02         [12] 2047 	mov	a,(_main_sloc0_1_0 + 2)
   0AED A3            [24] 2048 	inc	dptr
   0AEE F0            [24] 2049 	movx	@dptr,a
   0AEF E5*03         [12] 2050 	mov	a,(_main_sloc0_1_0 + 3)
   0AF1 A3            [24] 2051 	inc	dptr
   0AF2 F0            [24] 2052 	movx	@dptr,a
   0AF3 90 03 E8      [24] 2053 	mov	dptr,#0x03E8
   0AF6 E4            [12] 2054 	clr	a
   0AF7 F5 F0         [12] 2055 	mov	b,a
   0AF9 12r00r00      [24] 2056 	lcall	__mullong
   0AFC A8 82         [24] 2057 	mov	r0,dpl
   0AFE A9 83         [24] 2058 	mov	r1,dph
   0B00 AA F0         [24] 2059 	mov	r2,b
   0B02 FB            [12] 2060 	mov	r3,a
   0B03 D0 04         [24] 2061 	pop	ar4
   0B05 D0 05         [24] 2062 	pop	ar5
   0B07 D0 06         [24] 2063 	pop	ar6
   0B09 D0 07         [24] 2064 	pop	ar7
   0B0B EC            [12] 2065 	mov	a,r4
   0B0C C3            [12] 2066 	clr	c
   0B0D 98            [12] 2067 	subb	a,r0
   0B0E FC            [12] 2068 	mov	r4,a
   0B0F ED            [12] 2069 	mov	a,r5
   0B10 99            [12] 2070 	subb	a,r1
   0B11 FD            [12] 2071 	mov	r5,a
   0B12 EE            [12] 2072 	mov	a,r6
   0B13 9A            [12] 2073 	subb	a,r2
   0B14 FE            [12] 2074 	mov	r6,a
   0B15 EF            [12] 2075 	mov	a,r7
   0B16 9B            [12] 2076 	subb	a,r3
   0B17 FF            [12] 2077 	mov	r7,a
                           2078 ;	src/dhry21a.c:284: printf("Time elapsed:          %lu.%03lu seconds\n", 
   0B18 C0 04         [24] 2079 	push	ar4
   0B1A C0 05         [24] 2080 	push	ar5
   0B1C C0 06         [24] 2081 	push	ar6
   0B1E C0 07         [24] 2082 	push	ar7
   0B20 C0*00         [24] 2083 	push	_main_sloc0_1_0
   0B22 C0*01         [24] 2084 	push	(_main_sloc0_1_0 + 1)
   0B24 C0*02         [24] 2085 	push	(_main_sloc0_1_0 + 2)
   0B26 C0*03         [24] 2086 	push	(_main_sloc0_1_0 + 3)
   0B28 74r77         [12] 2087 	mov	a,#__str_39
   0B2A C0 E0         [24] 2088 	push	acc
   0B2C 74s04         [12] 2089 	mov	a,#(__str_39 >> 8)
   0B2E C0 E0         [24] 2090 	push	acc
   0B30 74 80         [12] 2091 	mov	a,#0x80
   0B32 C0 E0         [24] 2092 	push	acc
   0B34 12r00r00      [24] 2093 	lcall	_printf
   0B37 E5 81         [12] 2094 	mov	a,sp
   0B39 24 F5         [12] 2095 	add	a,#0xf5
   0B3B F5 81         [12] 2096 	mov	sp,a
                           2097 ;	src/dhry21a.c:290: dps = ((uint32_t)Number_Of_Runs)*1000/(uint32_t)(msecs_end);
   0B3D 90r05r24      [24] 2098 	mov	dptr,#_msecs_end
   0B40 E0            [24] 2099 	movx	a,@dptr
   0B41 FC            [12] 2100 	mov	r4,a
   0B42 A3            [24] 2101 	inc	dptr
   0B43 E0            [24] 2102 	movx	a,@dptr
   0B44 FD            [12] 2103 	mov	r5,a
   0B45 A3            [24] 2104 	inc	dptr
   0B46 E0            [24] 2105 	movx	a,@dptr
   0B47 FE            [12] 2106 	mov	r6,a
   0B48 A3            [24] 2107 	inc	dptr
   0B49 E0            [24] 2108 	movx	a,@dptr
   0B4A FF            [12] 2109 	mov	r7,a
   0B4B 90r00r00      [24] 2110 	mov	dptr,#__divulong_PARM_2
   0B4E EC            [12] 2111 	mov	a,r4
   0B4F F0            [24] 2112 	movx	@dptr,a
   0B50 ED            [12] 2113 	mov	a,r5
   0B51 A3            [24] 2114 	inc	dptr
   0B52 F0            [24] 2115 	movx	@dptr,a
   0B53 EE            [12] 2116 	mov	a,r6
   0B54 A3            [24] 2117 	inc	dptr
   0B55 F0            [24] 2118 	movx	@dptr,a
   0B56 EF            [12] 2119 	mov	a,r7
   0B57 A3            [24] 2120 	inc	dptr
   0B58 F0            [24] 2121 	movx	@dptr,a
   0B59 90 78 40      [24] 2122 	mov	dptr,#0x7840
   0B5C 75 F0 7D      [24] 2123 	mov	b,#0x7D
   0B5F 74 01         [12] 2124 	mov	a,#0x01
   0B61 12r00r00      [24] 2125 	lcall	__divulong
   0B64 AC 82         [24] 2126 	mov	r4,dpl
   0B66 AD 83         [24] 2127 	mov	r5,dph
   0B68 AE F0         [24] 2128 	mov	r6,b
   0B6A FF            [12] 2129 	mov	r7,a
   0B6B 90r05r28      [24] 2130 	mov	dptr,#_dps
   0B6E EC            [12] 2131 	mov	a,r4
   0B6F F0            [24] 2132 	movx	@dptr,a
   0B70 ED            [12] 2133 	mov	a,r5
   0B71 A3            [24] 2134 	inc	dptr
   0B72 F0            [24] 2135 	movx	@dptr,a
   0B73 EE            [12] 2136 	mov	a,r6
   0B74 A3            [24] 2137 	inc	dptr
   0B75 F0            [24] 2138 	movx	@dptr,a
   0B76 EF            [12] 2139 	mov	a,r7
   0B77 A3            [24] 2140 	inc	dptr
   0B78 F0            [24] 2141 	movx	@dptr,a
                           2142 ;	src/dhry21a.c:291: printf("Dhrystones per second: %d\n\n", (int16_t)(dps));    
   0B79 C0 04         [24] 2143 	push	ar4
   0B7B C0 05         [24] 2144 	push	ar5
   0B7D 74rA1         [12] 2145 	mov	a,#__str_40
   0B7F C0 E0         [24] 2146 	push	acc
   0B81 74s04         [12] 2147 	mov	a,#(__str_40 >> 8)
   0B83 C0 E0         [24] 2148 	push	acc
   0B85 74 80         [12] 2149 	mov	a,#0x80
   0B87 C0 E0         [24] 2150 	push	acc
   0B89 12r00r00      [24] 2151 	lcall	_printf
   0B8C E5 81         [12] 2152 	mov	a,sp
   0B8E 24 FB         [12] 2153 	add	a,#0xfb
   0B90 F5 81         [12] 2154 	mov	sp,a
                           2155 ;	src/dhry21a.c:292: printf("Test finished.\n\n");
   0B92 74rBD         [12] 2156 	mov	a,#__str_41
   0B94 C0 E0         [24] 2157 	push	acc
   0B96 74s04         [12] 2158 	mov	a,#(__str_41 >> 8)
   0B98 C0 E0         [24] 2159 	push	acc
   0B9A 74 80         [12] 2160 	mov	a,#0x80
   0B9C C0 E0         [24] 2161 	push	acc
   0B9E 12r00r00      [24] 2162 	lcall	_printf
   0BA1 15 81         [12] 2163 	dec	sp
   0BA3 15 81         [12] 2164 	dec	sp
   0BA5 15 81         [12] 2165 	dec	sp
                           2166 ;	src/dhry21a.c:293: return 0;
   0BA7 90 00 00      [24] 2167 	mov	dptr,#0x0000
   0BAA 22            [24] 2168 	ret
                           2169 ;------------------------------------------------------------
                           2170 ;Allocation info for local variables in function 'Proc_1'
                           2171 ;------------------------------------------------------------
                           2172 ;sloc0                     Allocated with name '_Proc_1_sloc0_1_0'
                           2173 ;sloc1                     Allocated with name '_Proc_1_sloc1_1_0'
                           2174 ;sloc2                     Allocated with name '_Proc_1_sloc2_1_0'
                           2175 ;Ptr_Val_Par               Allocated with name '_Proc_1_Ptr_Val_Par_1_80'
                           2176 ;Next_Record               Allocated with name '_Proc_1_Next_Record_1_81'
                           2177 ;------------------------------------------------------------
                           2178 ;	src/dhry21a.c:338: void Proc_1( REG Rec_Pointer Ptr_Val_Par )
                           2179 ;	-----------------------------------------
                           2180 ;	 function Proc_1
                           2181 ;	-----------------------------------------
   0BAB                    2182 _Proc_1:
   0BAB AF F0         [24] 2183 	mov	r7,b
   0BAD AE 83         [24] 2184 	mov	r6,dph
   0BAF E5 82         [12] 2185 	mov	a,dpl
   0BB1 90r05r89      [24] 2186 	mov	dptr,#_Proc_1_Ptr_Val_Par_1_80
   0BB4 F0            [24] 2187 	movx	@dptr,a
   0BB5 EE            [12] 2188 	mov	a,r6
   0BB6 A3            [24] 2189 	inc	dptr
   0BB7 F0            [24] 2190 	movx	@dptr,a
   0BB8 EF            [12] 2191 	mov	a,r7
   0BB9 A3            [24] 2192 	inc	dptr
   0BBA F0            [24] 2193 	movx	@dptr,a
                           2194 ;	src/dhry21a.c:342: REG Rec_Pointer Next_Record = Ptr_Val_Par->Ptr_Comp;  
   0BBB 90r05r89      [24] 2195 	mov	dptr,#_Proc_1_Ptr_Val_Par_1_80
   0BBE E0            [24] 2196 	movx	a,@dptr
   0BBF F5*04         [12] 2197 	mov	_Proc_1_sloc0_1_0,a
   0BC1 A3            [24] 2198 	inc	dptr
   0BC2 E0            [24] 2199 	movx	a,@dptr
   0BC3 F5*05         [12] 2200 	mov	(_Proc_1_sloc0_1_0 + 1),a
   0BC5 A3            [24] 2201 	inc	dptr
   0BC6 E0            [24] 2202 	movx	a,@dptr
   0BC7 F5*06         [12] 2203 	mov	(_Proc_1_sloc0_1_0 + 2),a
   0BC9 85*04 82      [24] 2204 	mov	dpl,_Proc_1_sloc0_1_0
   0BCC 85*05 83      [24] 2205 	mov	dph,(_Proc_1_sloc0_1_0 + 1)
   0BCF 85*06 F0      [24] 2206 	mov	b,(_Proc_1_sloc0_1_0 + 2)
   0BD2 12r00r00      [24] 2207 	lcall	__gptrget
   0BD5 FA            [12] 2208 	mov	r2,a
   0BD6 A3            [24] 2209 	inc	dptr
   0BD7 12r00r00      [24] 2210 	lcall	__gptrget
   0BDA FB            [12] 2211 	mov	r3,a
   0BDB A3            [24] 2212 	inc	dptr
   0BDC 12r00r00      [24] 2213 	lcall	__gptrget
   0BDF FC            [12] 2214 	mov	r4,a
                           2215 ;	src/dhry21a.c:347: structassign (*Ptr_Val_Par->Ptr_Comp, *Ptr_Glob);
   0BE0 8A 00         [24] 2216 	mov	ar0,r2
   0BE2 8B 01         [24] 2217 	mov	ar1,r3
   0BE4 8C 07         [24] 2218 	mov	ar7,r4
   0BE6 88*07         [24] 2219 	mov	_Proc_1_sloc1_1_0,r0
   0BE8 89*08         [24] 2220 	mov	(_Proc_1_sloc1_1_0 + 1),r1
   0BEA 8F*09         [24] 2221 	mov	(_Proc_1_sloc1_1_0 + 2),r7
   0BEC 90r00r00      [24] 2222 	mov	dptr,#_Ptr_Glob
   0BEF E0            [24] 2223 	movx	a,@dptr
   0BF0 FD            [12] 2224 	mov	r5,a
   0BF1 A3            [24] 2225 	inc	dptr
   0BF2 E0            [24] 2226 	movx	a,@dptr
   0BF3 FE            [12] 2227 	mov	r6,a
   0BF4 A3            [24] 2228 	inc	dptr
   0BF5 E0            [24] 2229 	movx	a,@dptr
   0BF6 FF            [12] 2230 	mov	r7,a
   0BF7 90r00r00      [24] 2231 	mov	dptr,#_memcpy_PARM_2
   0BFA ED            [12] 2232 	mov	a,r5
   0BFB F0            [24] 2233 	movx	@dptr,a
   0BFC EE            [12] 2234 	mov	a,r6
   0BFD A3            [24] 2235 	inc	dptr
   0BFE F0            [24] 2236 	movx	@dptr,a
   0BFF EF            [12] 2237 	mov	a,r7
   0C00 A3            [24] 2238 	inc	dptr
   0C01 F0            [24] 2239 	movx	@dptr,a
   0C02 90r00r00      [24] 2240 	mov	dptr,#_memcpy_PARM_3
   0C05 74 26         [12] 2241 	mov	a,#0x26
   0C07 F0            [24] 2242 	movx	@dptr,a
   0C08 E4            [12] 2243 	clr	a
   0C09 A3            [24] 2244 	inc	dptr
   0C0A F0            [24] 2245 	movx	@dptr,a
   0C0B 85*07 82      [24] 2246 	mov	dpl,_Proc_1_sloc1_1_0
   0C0E 85*08 83      [24] 2247 	mov	dph,(_Proc_1_sloc1_1_0 + 1)
   0C11 85*09 F0      [24] 2248 	mov	b,(_Proc_1_sloc1_1_0 + 2)
   0C14 C0 04         [24] 2249 	push	ar4
   0C16 C0 03         [24] 2250 	push	ar3
   0C18 C0 02         [24] 2251 	push	ar2
   0C1A 12r00r00      [24] 2252 	lcall	_memcpy
   0C1D D0 02         [24] 2253 	pop	ar2
   0C1F D0 03         [24] 2254 	pop	ar3
   0C21 D0 04         [24] 2255 	pop	ar4
                           2256 ;	src/dhry21a.c:348: Ptr_Val_Par->variant.var_1.Int_Comp = 5;
   0C23 74 04         [12] 2257 	mov	a,#0x04
   0C25 25*04         [12] 2258 	add	a,_Proc_1_sloc0_1_0
   0C27 F5*07         [12] 2259 	mov	_Proc_1_sloc1_1_0,a
   0C29 E4            [12] 2260 	clr	a
   0C2A 35*05         [12] 2261 	addc	a,(_Proc_1_sloc0_1_0 + 1)
   0C2C F5*08         [12] 2262 	mov	(_Proc_1_sloc1_1_0 + 1),a
   0C2E 85*06*09      [24] 2263 	mov	(_Proc_1_sloc1_1_0 + 2),(_Proc_1_sloc0_1_0 + 2)
   0C31 74 05         [12] 2264 	mov	a,#0x05
   0C33 25*04         [12] 2265 	add	a,_Proc_1_sloc0_1_0
   0C35 F5*0A         [12] 2266 	mov	_Proc_1_sloc2_1_0,a
   0C37 E4            [12] 2267 	clr	a
   0C38 35*05         [12] 2268 	addc	a,(_Proc_1_sloc0_1_0 + 1)
   0C3A F5*0B         [12] 2269 	mov	(_Proc_1_sloc2_1_0 + 1),a
   0C3C 85*06*0C      [24] 2270 	mov	(_Proc_1_sloc2_1_0 + 2),(_Proc_1_sloc0_1_0 + 2)
   0C3F 85*0A 82      [24] 2271 	mov	dpl,_Proc_1_sloc2_1_0
   0C42 85*0B 83      [24] 2272 	mov	dph,(_Proc_1_sloc2_1_0 + 1)
   0C45 85*0C F0      [24] 2273 	mov	b,(_Proc_1_sloc2_1_0 + 2)
   0C48 74 05         [12] 2274 	mov	a,#0x05
   0C4A 12r00r00      [24] 2275 	lcall	__gptrput
   0C4D A3            [24] 2276 	inc	dptr
   0C4E E4            [12] 2277 	clr	a
   0C4F 12r00r00      [24] 2278 	lcall	__gptrput
                           2279 ;	src/dhry21a.c:349: Next_Record->variant.var_1.Int_Comp 
   0C52 74 04         [12] 2280 	mov	a,#0x04
   0C54 2A            [12] 2281 	add	a,r2
   0C55 FD            [12] 2282 	mov	r5,a
   0C56 E4            [12] 2283 	clr	a
   0C57 3B            [12] 2284 	addc	a,r3
   0C58 FE            [12] 2285 	mov	r6,a
   0C59 8C 07         [24] 2286 	mov	ar7,r4
   0C5B 0D            [12] 2287 	inc	r5
   0C5C BD 00 01      [24] 2288 	cjne	r5,#0x00,00109$
   0C5F 0E            [12] 2289 	inc	r6
   0C60                    2290 00109$:
                           2291 ;	src/dhry21a.c:350: = Ptr_Val_Par->variant.var_1.Int_Comp;
   0C60 85*0A 82      [24] 2292 	mov	dpl,_Proc_1_sloc2_1_0
   0C63 85*0B 83      [24] 2293 	mov	dph,(_Proc_1_sloc2_1_0 + 1)
   0C66 85*0C F0      [24] 2294 	mov	b,(_Proc_1_sloc2_1_0 + 2)
   0C69 12r00r00      [24] 2295 	lcall	__gptrget
   0C6C F8            [12] 2296 	mov	r0,a
   0C6D A3            [24] 2297 	inc	dptr
   0C6E 12r00r00      [24] 2298 	lcall	__gptrget
   0C71 F9            [12] 2299 	mov	r1,a
   0C72 8D 82         [24] 2300 	mov	dpl,r5
   0C74 8E 83         [24] 2301 	mov	dph,r6
   0C76 8F F0         [24] 2302 	mov	b,r7
   0C78 E8            [12] 2303 	mov	a,r0
   0C79 12r00r00      [24] 2304 	lcall	__gptrput
   0C7C A3            [24] 2305 	inc	dptr
   0C7D E9            [12] 2306 	mov	a,r1
   0C7E 12r00r00      [24] 2307 	lcall	__gptrput
                           2308 ;	src/dhry21a.c:351: Next_Record->Ptr_Comp = Ptr_Val_Par->Ptr_Comp;
   0C81 85*04 82      [24] 2309 	mov	dpl,_Proc_1_sloc0_1_0
   0C84 85*05 83      [24] 2310 	mov	dph,(_Proc_1_sloc0_1_0 + 1)
   0C87 85*06 F0      [24] 2311 	mov	b,(_Proc_1_sloc0_1_0 + 2)
   0C8A 12r00r00      [24] 2312 	lcall	__gptrget
   0C8D FD            [12] 2313 	mov	r5,a
   0C8E A3            [24] 2314 	inc	dptr
   0C8F 12r00r00      [24] 2315 	lcall	__gptrget
   0C92 FE            [12] 2316 	mov	r6,a
   0C93 A3            [24] 2317 	inc	dptr
   0C94 12r00r00      [24] 2318 	lcall	__gptrget
   0C97 FF            [12] 2319 	mov	r7,a
   0C98 8A 82         [24] 2320 	mov	dpl,r2
   0C9A 8B 83         [24] 2321 	mov	dph,r3
   0C9C 8C F0         [24] 2322 	mov	b,r4
   0C9E ED            [12] 2323 	mov	a,r5
   0C9F 12r00r00      [24] 2324 	lcall	__gptrput
   0CA2 A3            [24] 2325 	inc	dptr
   0CA3 EE            [12] 2326 	mov	a,r6
   0CA4 12r00r00      [24] 2327 	lcall	__gptrput
   0CA7 A3            [24] 2328 	inc	dptr
   0CA8 EF            [12] 2329 	mov	a,r7
   0CA9 12r00r00      [24] 2330 	lcall	__gptrput
                           2331 ;	src/dhry21a.c:352: Proc_3 (&Next_Record->Ptr_Comp);
   0CAC 8A 82         [24] 2332 	mov	dpl,r2
   0CAE 8B 83         [24] 2333 	mov	dph,r3
   0CB0 8C F0         [24] 2334 	mov	b,r4
   0CB2 C0 04         [24] 2335 	push	ar4
   0CB4 C0 03         [24] 2336 	push	ar3
   0CB6 C0 02         [24] 2337 	push	ar2
   0CB8 12r0Er36      [24] 2338 	lcall	_Proc_3
   0CBB D0 02         [24] 2339 	pop	ar2
   0CBD D0 03         [24] 2340 	pop	ar3
   0CBF D0 04         [24] 2341 	pop	ar4
                           2342 ;	src/dhry21a.c:355: if (Next_Record->Discr == Ident_1)
   0CC1 74 03         [12] 2343 	mov	a,#0x03
   0CC3 2A            [12] 2344 	add	a,r2
   0CC4 FD            [12] 2345 	mov	r5,a
   0CC5 E4            [12] 2346 	clr	a
   0CC6 3B            [12] 2347 	addc	a,r3
   0CC7 FE            [12] 2348 	mov	r6,a
   0CC8 8C 07         [24] 2349 	mov	ar7,r4
   0CCA 8D 82         [24] 2350 	mov	dpl,r5
   0CCC 8E 83         [24] 2351 	mov	dph,r6
   0CCE 8F F0         [24] 2352 	mov	b,r7
   0CD0 12r00r00      [24] 2353 	lcall	__gptrget
   0CD3 60 03         [24] 2354 	jz	00110$
   0CD5 02r0Dr93      [24] 2355 	ljmp	00102$
   0CD8                    2356 00110$:
                           2357 ;	src/dhry21a.c:358: Next_Record->variant.var_1.Int_Comp = 6;
   0CD8 74 04         [12] 2358 	mov	a,#0x04
   0CDA 2A            [12] 2359 	add	a,r2
   0CDB F5*0A         [12] 2360 	mov	_Proc_1_sloc2_1_0,a
   0CDD E4            [12] 2361 	clr	a
   0CDE 3B            [12] 2362 	addc	a,r3
   0CDF F5*0B         [12] 2363 	mov	(_Proc_1_sloc2_1_0 + 1),a
   0CE1 8C*0C         [24] 2364 	mov	(_Proc_1_sloc2_1_0 + 2),r4
   0CE3 74 01         [12] 2365 	mov	a,#0x01
   0CE5 25*0A         [12] 2366 	add	a,_Proc_1_sloc2_1_0
   0CE7 F8            [12] 2367 	mov	r0,a
   0CE8 E4            [12] 2368 	clr	a
   0CE9 35*0B         [12] 2369 	addc	a,(_Proc_1_sloc2_1_0 + 1)
   0CEB F9            [12] 2370 	mov	r1,a
   0CEC AF*0C         [24] 2371 	mov	r7,(_Proc_1_sloc2_1_0 + 2)
   0CEE 88 82         [24] 2372 	mov	dpl,r0
   0CF0 89 83         [24] 2373 	mov	dph,r1
   0CF2 8F F0         [24] 2374 	mov	b,r7
   0CF4 74 06         [12] 2375 	mov	a,#0x06
   0CF6 12r00r00      [24] 2376 	lcall	__gptrput
   0CF9 A3            [24] 2377 	inc	dptr
   0CFA E4            [12] 2378 	clr	a
   0CFB 12r00r00      [24] 2379 	lcall	__gptrput
                           2380 ;	src/dhry21a.c:359: Proc_6 (Ptr_Val_Par->variant.var_1.Enum_Comp, 
   0CFE 85*07 82      [24] 2381 	mov	dpl,_Proc_1_sloc1_1_0
   0D01 85*08 83      [24] 2382 	mov	dph,(_Proc_1_sloc1_1_0 + 1)
   0D04 85*09 F0      [24] 2383 	mov	b,(_Proc_1_sloc1_1_0 + 2)
   0D07 12r00r00      [24] 2384 	lcall	__gptrget
   0D0A FF            [12] 2385 	mov	r7,a
                           2386 ;	src/dhry21a.c:360: &Next_Record->variant.var_1.Enum_Comp);
   0D0B 90r00r00      [24] 2387 	mov	dptr,#_Proc_6_PARM_2
   0D0E E5*0A         [12] 2388 	mov	a,_Proc_1_sloc2_1_0
   0D10 F0            [24] 2389 	movx	@dptr,a
   0D11 E5*0B         [12] 2390 	mov	a,(_Proc_1_sloc2_1_0 + 1)
   0D13 A3            [24] 2391 	inc	dptr
   0D14 F0            [24] 2392 	movx	@dptr,a
   0D15 E5*0C         [12] 2393 	mov	a,(_Proc_1_sloc2_1_0 + 2)
   0D17 A3            [24] 2394 	inc	dptr
   0D18 F0            [24] 2395 	movx	@dptr,a
   0D19 8F 82         [24] 2396 	mov	dpl,r7
   0D1B C0 04         [24] 2397 	push	ar4
   0D1D C0 03         [24] 2398 	push	ar3
   0D1F C0 02         [24] 2399 	push	ar2
   0D21 12r00r00      [24] 2400 	lcall	_Proc_6
   0D24 D0 02         [24] 2401 	pop	ar2
   0D26 D0 03         [24] 2402 	pop	ar3
   0D28 D0 04         [24] 2403 	pop	ar4
                           2404 ;	src/dhry21a.c:361: Next_Record->Ptr_Comp = Ptr_Glob->Ptr_Comp;
   0D2A 90r00r00      [24] 2405 	mov	dptr,#_Ptr_Glob
   0D2D E0            [24] 2406 	movx	a,@dptr
   0D2E FD            [12] 2407 	mov	r5,a
   0D2F A3            [24] 2408 	inc	dptr
   0D30 E0            [24] 2409 	movx	a,@dptr
   0D31 FE            [12] 2410 	mov	r6,a
   0D32 A3            [24] 2411 	inc	dptr
   0D33 E0            [24] 2412 	movx	a,@dptr
   0D34 FF            [12] 2413 	mov	r7,a
   0D35 8D 82         [24] 2414 	mov	dpl,r5
   0D37 8E 83         [24] 2415 	mov	dph,r6
   0D39 8F F0         [24] 2416 	mov	b,r7
   0D3B 12r00r00      [24] 2417 	lcall	__gptrget
   0D3E FD            [12] 2418 	mov	r5,a
   0D3F A3            [24] 2419 	inc	dptr
   0D40 12r00r00      [24] 2420 	lcall	__gptrget
   0D43 FE            [12] 2421 	mov	r6,a
   0D44 A3            [24] 2422 	inc	dptr
   0D45 12r00r00      [24] 2423 	lcall	__gptrget
   0D48 FF            [12] 2424 	mov	r7,a
   0D49 8A 82         [24] 2425 	mov	dpl,r2
   0D4B 8B 83         [24] 2426 	mov	dph,r3
   0D4D 8C F0         [24] 2427 	mov	b,r4
   0D4F ED            [12] 2428 	mov	a,r5
   0D50 12r00r00      [24] 2429 	lcall	__gptrput
   0D53 A3            [24] 2430 	inc	dptr
   0D54 EE            [12] 2431 	mov	a,r6
   0D55 12r00r00      [24] 2432 	lcall	__gptrput
   0D58 A3            [24] 2433 	inc	dptr
   0D59 EF            [12] 2434 	mov	a,r7
   0D5A 12r00r00      [24] 2435 	lcall	__gptrput
                           2436 ;	src/dhry21a.c:362: Proc_7 (Next_Record->variant.var_1.Int_Comp, 10, 
   0D5D 74 04         [12] 2437 	mov	a,#0x04
   0D5F 2A            [12] 2438 	add	a,r2
   0D60 FA            [12] 2439 	mov	r2,a
   0D61 E4            [12] 2440 	clr	a
   0D62 3B            [12] 2441 	addc	a,r3
   0D63 FB            [12] 2442 	mov	r3,a
   0D64 0A            [12] 2443 	inc	r2
   0D65 BA 00 01      [24] 2444 	cjne	r2,#0x00,00111$
   0D68 0B            [12] 2445 	inc	r3
   0D69                    2446 00111$:
   0D69 8A 82         [24] 2447 	mov	dpl,r2
   0D6B 8B 83         [24] 2448 	mov	dph,r3
   0D6D 8C F0         [24] 2449 	mov	b,r4
   0D6F 12r00r00      [24] 2450 	lcall	__gptrget
   0D72 FE            [12] 2451 	mov	r6,a
   0D73 A3            [24] 2452 	inc	dptr
   0D74 12r00r00      [24] 2453 	lcall	__gptrget
   0D77 FF            [12] 2454 	mov	r7,a
                           2455 ;	src/dhry21a.c:363: &Next_Record->variant.var_1.Int_Comp);
   0D78 90r00r00      [24] 2456 	mov	dptr,#_Proc_7_PARM_2
   0D7B 74 0A         [12] 2457 	mov	a,#0x0A
   0D7D F0            [24] 2458 	movx	@dptr,a
   0D7E E4            [12] 2459 	clr	a
   0D7F A3            [24] 2460 	inc	dptr
   0D80 F0            [24] 2461 	movx	@dptr,a
   0D81 90r00r00      [24] 2462 	mov	dptr,#_Proc_7_PARM_3
   0D84 EA            [12] 2463 	mov	a,r2
   0D85 F0            [24] 2464 	movx	@dptr,a
   0D86 EB            [12] 2465 	mov	a,r3
   0D87 A3            [24] 2466 	inc	dptr
   0D88 F0            [24] 2467 	movx	@dptr,a
   0D89 EC            [12] 2468 	mov	a,r4
   0D8A A3            [24] 2469 	inc	dptr
   0D8B F0            [24] 2470 	movx	@dptr,a
   0D8C 8E 82         [24] 2471 	mov	dpl,r6
   0D8E 8F 83         [24] 2472 	mov	dph,r7
   0D90 02r00r00      [24] 2473 	ljmp	_Proc_7
   0D93                    2474 00102$:
                           2475 ;	src/dhry21a.c:366: structassign (*Ptr_Val_Par, *Ptr_Val_Par->Ptr_Comp);
   0D93 AD*04         [24] 2476 	mov	r5,_Proc_1_sloc0_1_0
   0D95 AE*05         [24] 2477 	mov	r6,(_Proc_1_sloc0_1_0 + 1)
   0D97 AF*06         [24] 2478 	mov	r7,(_Proc_1_sloc0_1_0 + 2)
   0D99 85*04 82      [24] 2479 	mov	dpl,_Proc_1_sloc0_1_0
   0D9C 85*05 83      [24] 2480 	mov	dph,(_Proc_1_sloc0_1_0 + 1)
   0D9F 85*06 F0      [24] 2481 	mov	b,(_Proc_1_sloc0_1_0 + 2)
   0DA2 12r00r00      [24] 2482 	lcall	__gptrget
   0DA5 FA            [12] 2483 	mov	r2,a
   0DA6 A3            [24] 2484 	inc	dptr
   0DA7 12r00r00      [24] 2485 	lcall	__gptrget
   0DAA FB            [12] 2486 	mov	r3,a
   0DAB A3            [24] 2487 	inc	dptr
   0DAC 12r00r00      [24] 2488 	lcall	__gptrget
   0DAF FC            [12] 2489 	mov	r4,a
   0DB0 90r00r00      [24] 2490 	mov	dptr,#_memcpy_PARM_2
   0DB3 EA            [12] 2491 	mov	a,r2
   0DB4 F0            [24] 2492 	movx	@dptr,a
   0DB5 EB            [12] 2493 	mov	a,r3
   0DB6 A3            [24] 2494 	inc	dptr
   0DB7 F0            [24] 2495 	movx	@dptr,a
   0DB8 EC            [12] 2496 	mov	a,r4
   0DB9 A3            [24] 2497 	inc	dptr
   0DBA F0            [24] 2498 	movx	@dptr,a
   0DBB 90r00r00      [24] 2499 	mov	dptr,#_memcpy_PARM_3
   0DBE 74 26         [12] 2500 	mov	a,#0x26
   0DC0 F0            [24] 2501 	movx	@dptr,a
   0DC1 E4            [12] 2502 	clr	a
   0DC2 A3            [24] 2503 	inc	dptr
   0DC3 F0            [24] 2504 	movx	@dptr,a
   0DC4 8D 82         [24] 2505 	mov	dpl,r5
   0DC6 8E 83         [24] 2506 	mov	dph,r6
   0DC8 8F F0         [24] 2507 	mov	b,r7
   0DCA 02r00r00      [24] 2508 	ljmp	_memcpy
                           2509 ;------------------------------------------------------------
                           2510 ;Allocation info for local variables in function 'Proc_2'
                           2511 ;------------------------------------------------------------
                           2512 ;Int_Par_Ref               Allocated with name '_Proc_2_Int_Par_Ref_1_83'
                           2513 ;Int_Loc                   Allocated with name '_Proc_2_Int_Loc_1_84'
                           2514 ;Enum_Loc                  Allocated with name '_Proc_2_Enum_Loc_1_84'
                           2515 ;------------------------------------------------------------
                           2516 ;	src/dhry21a.c:370: void Proc_2( One_Fifty * Int_Par_Ref )
                           2517 ;	-----------------------------------------
                           2518 ;	 function Proc_2
                           2519 ;	-----------------------------------------
   0DCD                    2520 _Proc_2:
   0DCD AF F0         [24] 2521 	mov	r7,b
   0DCF AE 83         [24] 2522 	mov	r6,dph
   0DD1 E5 82         [12] 2523 	mov	a,dpl
   0DD3 90r05r8C      [24] 2524 	mov	dptr,#_Proc_2_Int_Par_Ref_1_83
   0DD6 F0            [24] 2525 	movx	@dptr,a
   0DD7 EE            [12] 2526 	mov	a,r6
   0DD8 A3            [24] 2527 	inc	dptr
   0DD9 F0            [24] 2528 	movx	@dptr,a
   0DDA EF            [12] 2529 	mov	a,r7
   0DDB A3            [24] 2530 	inc	dptr
   0DDC F0            [24] 2531 	movx	@dptr,a
                           2532 ;	src/dhry21a.c:378: Int_Loc = *Int_Par_Ref + 10;
   0DDD 90r05r8C      [24] 2533 	mov	dptr,#_Proc_2_Int_Par_Ref_1_83
   0DE0 E0            [24] 2534 	movx	a,@dptr
   0DE1 FD            [12] 2535 	mov	r5,a
   0DE2 A3            [24] 2536 	inc	dptr
   0DE3 E0            [24] 2537 	movx	a,@dptr
   0DE4 FE            [12] 2538 	mov	r6,a
   0DE5 A3            [24] 2539 	inc	dptr
   0DE6 E0            [24] 2540 	movx	a,@dptr
   0DE7 FF            [12] 2541 	mov	r7,a
   0DE8 8D 82         [24] 2542 	mov	dpl,r5
   0DEA 8E 83         [24] 2543 	mov	dph,r6
   0DEC 8F F0         [24] 2544 	mov	b,r7
   0DEE 12r00r00      [24] 2545 	lcall	__gptrget
   0DF1 FB            [12] 2546 	mov	r3,a
   0DF2 A3            [24] 2547 	inc	dptr
   0DF3 12r00r00      [24] 2548 	lcall	__gptrget
   0DF6 FC            [12] 2549 	mov	r4,a
   0DF7 74 0A         [12] 2550 	mov	a,#0x0A
   0DF9 2B            [12] 2551 	add	a,r3
   0DFA FB            [12] 2552 	mov	r3,a
   0DFB E4            [12] 2553 	clr	a
   0DFC 3C            [12] 2554 	addc	a,r4
   0DFD FC            [12] 2555 	mov	r4,a
                           2556 ;	src/dhry21a.c:379: do /* executed once */
   0DFE                    2557 00103$:
                           2558 ;	src/dhry21a.c:380: if (Ch_1_Glob == 'A')
   0DFE 90r00r0A      [24] 2559 	mov	dptr,#_Ch_1_Glob
   0E01 E0            [24] 2560 	movx	a,@dptr
   0E02 FA            [12] 2561 	mov	r2,a
   0E03 BA 41 28      [24] 2562 	cjne	r2,#0x41,00104$
                           2563 ;	src/dhry21a.c:383: Int_Loc -= 1;
   0E06 1B            [12] 2564 	dec	r3
   0E07 BB FF 01      [24] 2565 	cjne	r3,#0xFF,00117$
   0E0A 1C            [12] 2566 	dec	r4
   0E0B                    2567 00117$:
                           2568 ;	src/dhry21a.c:384: *Int_Par_Ref = Int_Loc - Int_Glob;
   0E0B 90r00r06      [24] 2569 	mov	dptr,#_Int_Glob
   0E0E E0            [24] 2570 	movx	a,@dptr
   0E0F F9            [12] 2571 	mov	r1,a
   0E10 A3            [24] 2572 	inc	dptr
   0E11 E0            [24] 2573 	movx	a,@dptr
   0E12 FA            [12] 2574 	mov	r2,a
   0E13 EB            [12] 2575 	mov	a,r3
   0E14 C3            [12] 2576 	clr	c
   0E15 99            [12] 2577 	subb	a,r1
   0E16 F9            [12] 2578 	mov	r1,a
   0E17 EC            [12] 2579 	mov	a,r4
   0E18 9A            [12] 2580 	subb	a,r2
   0E19 FA            [12] 2581 	mov	r2,a
   0E1A 8D 82         [24] 2582 	mov	dpl,r5
   0E1C 8E 83         [24] 2583 	mov	dph,r6
   0E1E 8F F0         [24] 2584 	mov	b,r7
   0E20 E9            [12] 2585 	mov	a,r1
   0E21 12r00r00      [24] 2586 	lcall	__gptrput
   0E24 A3            [24] 2587 	inc	dptr
   0E25 EA            [12] 2588 	mov	a,r2
   0E26 12r00r00      [24] 2589 	lcall	__gptrput
                           2590 ;	src/dhry21a.c:385: Enum_Loc = Ident_1;
   0E29 90r05r8F      [24] 2591 	mov	dptr,#_Proc_2_Enum_Loc_1_84
   0E2C E4            [12] 2592 	clr	a
   0E2D F0            [24] 2593 	movx	@dptr,a
   0E2E                    2594 00104$:
                           2595 ;	src/dhry21a.c:387: while (Enum_Loc != Ident_1); /* true */
   0E2E 90r05r8F      [24] 2596 	mov	dptr,#_Proc_2_Enum_Loc_1_84
   0E31 E0            [24] 2597 	movx	a,@dptr
   0E32 FA            [12] 2598 	mov	r2,a
   0E33 70 C9         [24] 2599 	jnz	00103$
   0E35 22            [24] 2600 	ret
                           2601 ;------------------------------------------------------------
                           2602 ;Allocation info for local variables in function 'Proc_3'
                           2603 ;------------------------------------------------------------
                           2604 ;Ptr_Ref_Par               Allocated with name '_Proc_3_Ptr_Ref_Par_1_86'
                           2605 ;------------------------------------------------------------
                           2606 ;	src/dhry21a.c:391: void Proc_3( Rec_Pointer * Ptr_Ref_Par )
                           2607 ;	-----------------------------------------
                           2608 ;	 function Proc_3
                           2609 ;	-----------------------------------------
   0E36                    2610 _Proc_3:
   0E36 AF F0         [24] 2611 	mov	r7,b
   0E38 AE 83         [24] 2612 	mov	r6,dph
   0E3A E5 82         [12] 2613 	mov	a,dpl
   0E3C 90r05r90      [24] 2614 	mov	dptr,#_Proc_3_Ptr_Ref_Par_1_86
   0E3F F0            [24] 2615 	movx	@dptr,a
   0E40 EE            [12] 2616 	mov	a,r6
   0E41 A3            [24] 2617 	inc	dptr
   0E42 F0            [24] 2618 	movx	@dptr,a
   0E43 EF            [12] 2619 	mov	a,r7
   0E44 A3            [24] 2620 	inc	dptr
   0E45 F0            [24] 2621 	movx	@dptr,a
                           2622 ;	src/dhry21a.c:396: if (Ptr_Glob != Null)
   0E46 90r00r00      [24] 2623 	mov	dptr,#_Ptr_Glob
   0E49 E0            [24] 2624 	movx	a,@dptr
   0E4A FD            [12] 2625 	mov	r5,a
   0E4B A3            [24] 2626 	inc	dptr
   0E4C E0            [24] 2627 	movx	a,@dptr
   0E4D FE            [12] 2628 	mov	r6,a
   0E4E A3            [24] 2629 	inc	dptr
   0E4F E0            [24] 2630 	movx	a,@dptr
   0E50 FF            [12] 2631 	mov	r7,a
   0E51 ED            [12] 2632 	mov	a,r5
   0E52 4E            [12] 2633 	orl	a,r6
   0E53 60 33         [24] 2634 	jz	00102$
                           2635 ;	src/dhry21a.c:398: *Ptr_Ref_Par = Ptr_Glob->Ptr_Comp;
   0E55 90r05r90      [24] 2636 	mov	dptr,#_Proc_3_Ptr_Ref_Par_1_86
   0E58 E0            [24] 2637 	movx	a,@dptr
   0E59 FA            [12] 2638 	mov	r2,a
   0E5A A3            [24] 2639 	inc	dptr
   0E5B E0            [24] 2640 	movx	a,@dptr
   0E5C FB            [12] 2641 	mov	r3,a
   0E5D A3            [24] 2642 	inc	dptr
   0E5E E0            [24] 2643 	movx	a,@dptr
   0E5F FC            [12] 2644 	mov	r4,a
   0E60 8D 82         [24] 2645 	mov	dpl,r5
   0E62 8E 83         [24] 2646 	mov	dph,r6
   0E64 8F F0         [24] 2647 	mov	b,r7
   0E66 12r00r00      [24] 2648 	lcall	__gptrget
   0E69 FD            [12] 2649 	mov	r5,a
   0E6A A3            [24] 2650 	inc	dptr
   0E6B 12r00r00      [24] 2651 	lcall	__gptrget
   0E6E FE            [12] 2652 	mov	r6,a
   0E6F A3            [24] 2653 	inc	dptr
   0E70 12r00r00      [24] 2654 	lcall	__gptrget
   0E73 FF            [12] 2655 	mov	r7,a
   0E74 8A 82         [24] 2656 	mov	dpl,r2
   0E76 8B 83         [24] 2657 	mov	dph,r3
   0E78 8C F0         [24] 2658 	mov	b,r4
   0E7A ED            [12] 2659 	mov	a,r5
   0E7B 12r00r00      [24] 2660 	lcall	__gptrput
   0E7E A3            [24] 2661 	inc	dptr
   0E7F EE            [12] 2662 	mov	a,r6
   0E80 12r00r00      [24] 2663 	lcall	__gptrput
   0E83 A3            [24] 2664 	inc	dptr
   0E84 EF            [12] 2665 	mov	a,r7
   0E85 12r00r00      [24] 2666 	lcall	__gptrput
   0E88                    2667 00102$:
                           2668 ;	src/dhry21a.c:399: Proc_7 (10, Int_Glob, &Ptr_Glob->variant.var_1.Int_Comp);
   0E88 90r00r06      [24] 2669 	mov	dptr,#_Int_Glob
   0E8B E0            [24] 2670 	movx	a,@dptr
   0E8C FE            [12] 2671 	mov	r6,a
   0E8D A3            [24] 2672 	inc	dptr
   0E8E E0            [24] 2673 	movx	a,@dptr
   0E8F FF            [12] 2674 	mov	r7,a
   0E90 90r00r00      [24] 2675 	mov	dptr,#_Ptr_Glob
   0E93 E0            [24] 2676 	movx	a,@dptr
   0E94 FB            [12] 2677 	mov	r3,a
   0E95 A3            [24] 2678 	inc	dptr
   0E96 E0            [24] 2679 	movx	a,@dptr
   0E97 FC            [12] 2680 	mov	r4,a
   0E98 A3            [24] 2681 	inc	dptr
   0E99 E0            [24] 2682 	movx	a,@dptr
   0E9A FD            [12] 2683 	mov	r5,a
   0E9B 74 05         [12] 2684 	mov	a,#0x05
   0E9D 2B            [12] 2685 	add	a,r3
   0E9E FB            [12] 2686 	mov	r3,a
   0E9F E4            [12] 2687 	clr	a
   0EA0 3C            [12] 2688 	addc	a,r4
   0EA1 FC            [12] 2689 	mov	r4,a
   0EA2 90r00r00      [24] 2690 	mov	dptr,#_Proc_7_PARM_2
   0EA5 EE            [12] 2691 	mov	a,r6
   0EA6 F0            [24] 2692 	movx	@dptr,a
   0EA7 EF            [12] 2693 	mov	a,r7
   0EA8 A3            [24] 2694 	inc	dptr
   0EA9 F0            [24] 2695 	movx	@dptr,a
   0EAA 90r00r00      [24] 2696 	mov	dptr,#_Proc_7_PARM_3
   0EAD EB            [12] 2697 	mov	a,r3
   0EAE F0            [24] 2698 	movx	@dptr,a
   0EAF EC            [12] 2699 	mov	a,r4
   0EB0 A3            [24] 2700 	inc	dptr
   0EB1 F0            [24] 2701 	movx	@dptr,a
   0EB2 ED            [12] 2702 	mov	a,r5
   0EB3 A3            [24] 2703 	inc	dptr
   0EB4 F0            [24] 2704 	movx	@dptr,a
   0EB5 90 00 0A      [24] 2705 	mov	dptr,#0x000A
   0EB8 02r00r00      [24] 2706 	ljmp	_Proc_7
                           2707 ;------------------------------------------------------------
                           2708 ;Allocation info for local variables in function 'Proc_4'
                           2709 ;------------------------------------------------------------
                           2710 ;Bool_Loc                  Allocated with name '_Proc_4_Bool_Loc_1_89'
                           2711 ;------------------------------------------------------------
                           2712 ;	src/dhry21a.c:403: void Proc_4( void ) /* without parameters */
                           2713 ;	-----------------------------------------
                           2714 ;	 function Proc_4
                           2715 ;	-----------------------------------------
   0EBB                    2716 _Proc_4:
                           2717 ;	src/dhry21a.c:409: Bool_Loc = Ch_1_Glob == 'A';
   0EBB 90r00r0A      [24] 2718 	mov	dptr,#_Ch_1_Glob
   0EBE E0            [24] 2719 	movx	a,@dptr
   0EBF FF            [12] 2720 	mov	r7,a
   0EC0 E4            [12] 2721 	clr	a
   0EC1 BF 41 01      [24] 2722 	cjne	r7,#0x41,00103$
   0EC4 04            [12] 2723 	inc	a
   0EC5                    2724 00103$:
   0EC5 FF            [12] 2725 	mov	r7,a
   0EC6 33            [12] 2726 	rlc	a
   0EC7 95 E0         [12] 2727 	subb	a,acc
   0EC9 FE            [12] 2728 	mov	r6,a
                           2729 ;	src/dhry21a.c:410: Bool_Glob = Bool_Loc | Bool_Glob;
   0ECA 90r00r08      [24] 2730 	mov	dptr,#_Bool_Glob
   0ECD E0            [24] 2731 	movx	a,@dptr
   0ECE FC            [12] 2732 	mov	r4,a
   0ECF A3            [24] 2733 	inc	dptr
   0ED0 E0            [24] 2734 	movx	a,@dptr
   0ED1 FD            [12] 2735 	mov	r5,a
   0ED2 90r00r08      [24] 2736 	mov	dptr,#_Bool_Glob
   0ED5 EC            [12] 2737 	mov	a,r4
   0ED6 4F            [12] 2738 	orl	a,r7
   0ED7 F0            [24] 2739 	movx	@dptr,a
   0ED8 ED            [12] 2740 	mov	a,r5
   0ED9 4E            [12] 2741 	orl	a,r6
   0EDA A3            [24] 2742 	inc	dptr
   0EDB F0            [24] 2743 	movx	@dptr,a
                           2744 ;	src/dhry21a.c:411: Ch_2_Glob = 'B';
   0EDC 90r00r0B      [24] 2745 	mov	dptr,#_Ch_2_Glob
   0EDF 74 42         [12] 2746 	mov	a,#0x42
   0EE1 F0            [24] 2747 	movx	@dptr,a
   0EE2 22            [24] 2748 	ret
                           2749 ;------------------------------------------------------------
                           2750 ;Allocation info for local variables in function 'Proc_5'
                           2751 ;------------------------------------------------------------
                           2752 ;	src/dhry21a.c:415: void Proc_5( void ) /* without parameters */
                           2753 ;	-----------------------------------------
                           2754 ;	 function Proc_5
                           2755 ;	-----------------------------------------
   0EE3                    2756 _Proc_5:
                           2757 ;	src/dhry21a.c:419: Ch_1_Glob = 'A';
   0EE3 90r00r0A      [24] 2758 	mov	dptr,#_Ch_1_Glob
   0EE6 74 41         [12] 2759 	mov	a,#0x41
   0EE8 F0            [24] 2760 	movx	@dptr,a
                           2761 ;	src/dhry21a.c:420: Bool_Glob = false;
   0EE9 90r00r08      [24] 2762 	mov	dptr,#_Bool_Glob
   0EEC E4            [12] 2763 	clr	a
   0EED F0            [24] 2764 	movx	@dptr,a
   0EEE E4            [12] 2765 	clr	a
   0EEF A3            [24] 2766 	inc	dptr
   0EF0 F0            [24] 2767 	movx	@dptr,a
   0EF1 22            [24] 2768 	ret
                           2769 	.area CSEG    (CODE)
                           2770 	.area CONST   (CODE)
   0000                    2771 __str_0:
   0000 64 68 72 79 2E 72  2772 	.ascii "dhry.res"
        65 73
   0008 00                 2773 	.db 0x00
   0009                    2774 __str_1:
   0009 61 2B              2775 	.ascii "a+"
   000B 00                 2776 	.db 0x00
   000C                    2777 __str_2:
   000C 43 61 6E 20 6E 6F  2778 	.ascii "Can not open dhry.res"
        74 20 6F 70 65 6E
        20 64 68 72 79 2E
        72 65 73
   0021 0A                 2779 	.db 0x0A
   0022 0A                 2780 	.db 0x0A
   0023 00                 2781 	.db 0x00
   0024                    2782 __str_3:
   0024 44 48 52 59 53 54  2783 	.ascii "DHRYSTONE PROGRAM, SOME STRING"
        4F 4E 45 20 50 52
        4F 47 52 41 4D 2C
        20 53 4F 4D 45 20
        53 54 52 49 4E 47
   0042 00                 2784 	.db 0x00
   0043                    2785 __str_4:
   0043 44 48 52 59 53 54  2786 	.ascii "DHRYSTONE PROGRAM, 1'ST STRING"
        4F 4E 45 20 50 52
        4F 47 52 41 4D 2C
        20 31 27 53 54 20
        53 54 52 49 4E 47
   0061 00                 2787 	.db 0x00
   0062                    2788 __str_5:
   0062 0A                 2789 	.db 0x0A
   0063 00                 2790 	.db 0x00
   0064                    2791 __str_6:
   0064 44 68 72 79 73 74  2792 	.ascii "Dhrystone Benchmark, Version 2.1 (Language: C)"
        6F 6E 65 20 42 65
        6E 63 68 6D 61 72
        6B 2C 20 56 65 72
        73 69 6F 6E 20 32
        2E 31 20 28 4C 61
        6E 67 75 61 67 65
        3A 20 43 29
   0092 0A                 2793 	.db 0x0A
   0093 00                 2794 	.db 0x00
   0094                    2795 __str_7:
   0094 45 78 65 63 75 74  2796 	.ascii "Execution starts, %d runs through Dhrystone"
        69 6F 6E 20 73 74
        61 72 74 73 2C 20
        25 64 20 72 75 6E
        73 20 74 68 72 6F
        75 67 68 20 44 68
        72 79 73 74 6F 6E
        65
   00BF 0A                 2797 	.db 0x0A
   00C0 00                 2798 	.db 0x00
   00C1                    2799 __str_8:
   00C1 44 48 52 59 53 54  2800 	.ascii "DHRYSTONE PROGRAM, 2'ND STRING"
        4F 4E 45 20 50 52
        4F 47 52 41 4D 2C
        20 32 27 4E 44 20
        53 54 52 49 4E 47
   00DF 00                 2801 	.db 0x00
   00E0                    2802 __str_9:
   00E0 44 48 52 59 53 54  2803 	.ascii "DHRYSTONE PROGRAM, 3'RD STRING"
        4F 4E 45 20 50 52
        4F 47 52 41 4D 2C
        20 33 27 52 44 20
        53 54 52 49 4E 47
   00FE 00                 2804 	.db 0x00
   00FF                    2805 __str_10:
   00FF 45 78 65 63 75 74  2806 	.ascii "Execution ends"
        69 6F 6E 20 65 6E
        64 73
   010D 0A                 2807 	.db 0x0A
   010E 00                 2808 	.db 0x00
   010F                    2809 __str_11:
   010F 46 69 6E 61 6C 20  2810 	.ascii "Final values of the variables used in the benchmark:"
        76 61 6C 75 65 73
        20 6F 66 20 74 68
        65 20 76 61 72 69
        61 62 6C 65 73 20
        75 73 65 64 20 69
        6E 20 74 68 65 20
        62 65 6E 63 68 6D
        61 72 6B 3A
   0143 0A                 2811 	.db 0x0A
   0144 00                 2812 	.db 0x00
   0145                    2813 __str_12:
   0145 49 6E 74 5F 47 6C  2814 	.ascii "Int_Glob:            %d"
        6F 62 3A 20 20 20
        20 20 20 20 20 20
        20 20 20 25 64
   015C 0A                 2815 	.db 0x0A
   015D 00                 2816 	.db 0x00
   015E                    2817 __str_13:
   015E 20 20 20 20 20 20  2818 	.ascii "        should be:   %d"
        20 20 73 68 6F 75
        6C 64 20 62 65 3A
        20 20 20 25 64
   0175 0A                 2819 	.db 0x0A
   0176 00                 2820 	.db 0x00
   0177                    2821 __str_14:
   0177 42 6F 6F 6C 5F 47  2822 	.ascii "Bool_Glob:           %d"
        6C 6F 62 3A 20 20
        20 20 20 20 20 20
        20 20 20 25 64
   018E 0A                 2823 	.db 0x0A
   018F 00                 2824 	.db 0x00
   0190                    2825 __str_15:
   0190 43 68 5F 31 5F 47  2826 	.ascii "Ch_1_Glob:           %c"
        6C 6F 62 3A 20 20
        20 20 20 20 20 20
        20 20 20 25 63
   01A7 0A                 2827 	.db 0x0A
   01A8 00                 2828 	.db 0x00
   01A9                    2829 __str_16:
   01A9 20 20 20 20 20 20  2830 	.ascii "        should be:   %c"
        20 20 73 68 6F 75
        6C 64 20 62 65 3A
        20 20 20 25 63
   01C0 0A                 2831 	.db 0x0A
   01C1 00                 2832 	.db 0x00
   01C2                    2833 __str_17:
   01C2 43 68 5F 32 5F 47  2834 	.ascii "Ch_2_Glob:           %c"
        6C 6F 62 3A 20 20
        20 20 20 20 20 20
        20 20 20 25 63
   01D9 0A                 2835 	.db 0x0A
   01DA 00                 2836 	.db 0x00
   01DB                    2837 __str_18:
   01DB 41 72 72 5F 31 5F  2838 	.ascii "Arr_1_Glob[8]:       %d"
        47 6C 6F 62 5B 38
        5D 3A 20 20 20 20
        20 20 20 25 64
   01F2 0A                 2839 	.db 0x0A
   01F3 00                 2840 	.db 0x00
   01F4                    2841 __str_19:
   01F4 41 72 72 5F 32 5F  2842 	.ascii "Arr_2_Glob[8][7]:    %d"
        47 6C 6F 62 5B 38
        5D 5B 37 5D 3A 20
        20 20 20 25 64
   020B 0A                 2843 	.db 0x0A
   020C 00                 2844 	.db 0x00
   020D                    2845 __str_20:
   020D 20 20 20 20 20 20  2846 	.ascii "        should be:   Number_Of_Runs + 10"
        20 20 73 68 6F 75
        6C 64 20 62 65 3A
        20 20 20 4E 75 6D
        62 65 72 5F 4F 66
        5F 52 75 6E 73 20
        2B 20 31 30
   0235 0A                 2847 	.db 0x0A
   0236 00                 2848 	.db 0x00
   0237                    2849 __str_21:
   0237 50 74 72 5F 47 6C  2850 	.ascii "Ptr_Glob->"
        6F 62 2D 3E
   0241 0A                 2851 	.db 0x0A
   0242 00                 2852 	.db 0x00
   0243                    2853 __str_22:
   0243 20 20 50 74 72 5F  2854 	.ascii "  Ptr_Comp:          %d"
        43 6F 6D 70 3A 20
        20 20 20 20 20 20
        20 20 20 25 64
   025A 0A                 2855 	.db 0x0A
   025B 00                 2856 	.db 0x00
   025C                    2857 __str_23:
   025C 20 20 20 20 20 20  2858 	.ascii "        should be:   (implementation-dependent)"
        20 20 73 68 6F 75
        6C 64 20 62 65 3A
        20 20 20 28 69 6D
        70 6C 65 6D 65 6E
        74 61 74 69 6F 6E
        2D 64 65 70 65 6E
        64 65 6E 74 29
   028B 0A                 2859 	.db 0x0A
   028C 00                 2860 	.db 0x00
   028D                    2861 __str_24:
   028D 20 20 44 69 73 63  2862 	.ascii "  Discr:             %d"
        72 3A 20 20 20 20
        20 20 20 20 20 20
        20 20 20 25 64
   02A4 0A                 2863 	.db 0x0A
   02A5 00                 2864 	.db 0x00
   02A6                    2865 __str_25:
   02A6 20 20 45 6E 75 6D  2866 	.ascii "  Enum_Comp:         %d"
        5F 43 6F 6D 70 3A
        20 20 20 20 20 20
        20 20 20 25 64
   02BD 0A                 2867 	.db 0x0A
   02BE 00                 2868 	.db 0x00
   02BF                    2869 __str_26:
   02BF 20 20 49 6E 74 5F  2870 	.ascii "  Int_Comp:          %d"
        43 6F 6D 70 3A 20
        20 20 20 20 20 20
        20 20 20 25 64
   02D6 0A                 2871 	.db 0x0A
   02D7 00                 2872 	.db 0x00
   02D8                    2873 __str_27:
   02D8 20 20 53 74 72 5F  2874 	.ascii "  Str_Comp:          %s"
        43 6F 6D 70 3A 20
        20 20 20 20 20 20
        20 20 20 25 73
   02EF 0A                 2875 	.db 0x0A
   02F0 00                 2876 	.db 0x00
   02F1                    2877 __str_28:
   02F1 20 20 20 20 20 20  2878 	.ascii "        should be:   DHRYSTONE PROGRAM, SOME STRING"
        20 20 73 68 6F 75
        6C 64 20 62 65 3A
        20 20 20 44 48 52
        59 53 54 4F 4E 45
        20 50 52 4F 47 52
        41 4D 2C 20 53 4F
        4D 45 20 53 54 52
        49 4E 47
   0324 0A                 2879 	.db 0x0A
   0325 00                 2880 	.db 0x00
   0326                    2881 __str_29:
   0326 4E 65 78 74 5F 50  2882 	.ascii "Next_Ptr_Glob->"
        74 72 5F 47 6C 6F
        62 2D 3E
   0335 0A                 2883 	.db 0x0A
   0336 00                 2884 	.db 0x00
   0337                    2885 __str_30:
   0337 20 20 20 20 20 20  2886 	.ascii "        should be:   (implementation-dependent), same as abo"
        20 20 73 68 6F 75
        6C 64 20 62 65 3A
        20 20 20 28 69 6D
        70 6C 65 6D 65 6E
        74 61 74 69 6F 6E
        2D 64 65 70 65 6E
        64 65 6E 74 29 2C
        20 73 61 6D 65 20
        61 73 20 61 62 6F
   0373 76 65              2887 	.ascii "ve"
   0375 0A                 2888 	.db 0x0A
   0376 00                 2889 	.db 0x00
   0377                    2890 __str_31:
   0377 49 6E 74 5F 31 5F  2891 	.ascii "Int_1_Loc:           %d"
        4C 6F 63 3A 20 20
        20 20 20 20 20 20
        20 20 20 25 64
   038E 0A                 2892 	.db 0x0A
   038F 00                 2893 	.db 0x00
   0390                    2894 __str_32:
   0390 49 6E 74 5F 32 5F  2895 	.ascii "Int_2_Loc:           %d"
        4C 6F 63 3A 20 20
        20 20 20 20 20 20
        20 20 20 25 64
   03A7 0A                 2896 	.db 0x0A
   03A8 00                 2897 	.db 0x00
   03A9                    2898 __str_33:
   03A9 49 6E 74 5F 33 5F  2899 	.ascii "Int_3_Loc:           %d"
        4C 6F 63 3A 20 20
        20 20 20 20 20 20
        20 20 20 25 64
   03C0 0A                 2900 	.db 0x0A
   03C1 00                 2901 	.db 0x00
   03C2                    2902 __str_34:
   03C2 45 6E 75 6D 5F 4C  2903 	.ascii "Enum_Loc:            %d"
        6F 63 3A 20 20 20
        20 20 20 20 20 20
        20 20 20 25 64
   03D9 0A                 2904 	.db 0x0A
   03DA 00                 2905 	.db 0x00
   03DB                    2906 __str_35:
   03DB 53 74 72 5F 31 5F  2907 	.ascii "Str_1_Loc:           %s"
        4C 6F 63 3A 20 20
        20 20 20 20 20 20
        20 20 20 25 73
   03F2 0A                 2908 	.db 0x0A
   03F3 00                 2909 	.db 0x00
   03F4                    2910 __str_36:
   03F4 20 20 20 20 20 20  2911 	.ascii "        should be:   DHRYSTONE PROGRAM, 1'ST STRING"
        20 20 73 68 6F 75
        6C 64 20 62 65 3A
        20 20 20 44 48 52
        59 53 54 4F 4E 45
        20 50 52 4F 47 52
        41 4D 2C 20 31 27
        53 54 20 53 54 52
        49 4E 47
   0427 0A                 2912 	.db 0x0A
   0428 00                 2913 	.db 0x00
   0429                    2914 __str_37:
   0429 53 74 72 5F 32 5F  2915 	.ascii "Str_2_Loc:           %s"
        4C 6F 63 3A 20 20
        20 20 20 20 20 20
        20 20 20 25 73
   0440 0A                 2916 	.db 0x0A
   0441 00                 2917 	.db 0x00
   0442                    2918 __str_38:
   0442 20 20 20 20 20 20  2919 	.ascii "        should be:   DHRYSTONE PROGRAM, 2'ND STRING"
        20 20 73 68 6F 75
        6C 64 20 62 65 3A
        20 20 20 44 48 52
        59 53 54 4F 4E 45
        20 50 52 4F 47 52
        41 4D 2C 20 32 27
        4E 44 20 53 54 52
        49 4E 47
   0475 0A                 2920 	.db 0x0A
   0476 00                 2921 	.db 0x00
   0477                    2922 __str_39:
   0477 54 69 6D 65 20 65  2923 	.ascii "Time elapsed:          %lu.%03lu seconds"
        6C 61 70 73 65 64
        3A 20 20 20 20 20
        20 20 20 20 20 25
        6C 75 2E 25 30 33
        6C 75 20 73 65 63
        6F 6E 64 73
   049F 0A                 2924 	.db 0x0A
   04A0 00                 2925 	.db 0x00
   04A1                    2926 __str_40:
   04A1 44 68 72 79 73 74  2927 	.ascii "Dhrystones per second: %d"
        6F 6E 65 73 20 70
        65 72 20 73 65 63
        6F 6E 64 3A 20 25
        64
   04BA 0A                 2928 	.db 0x0A
   04BB 0A                 2929 	.db 0x0A
   04BC 00                 2930 	.db 0x00
   04BD                    2931 __str_41:
   04BD 54 65 73 74 20 66  2932 	.ascii "Test finished."
        69 6E 69 73 68 65
        64 2E
   04CB 0A                 2933 	.db 0x0A
   04CC 0A                 2934 	.db 0x0A
   04CD 00                 2935 	.db 0x00
   04CE                    2936 __str_42:
   04CE 52 65 67 69 73 74  2937 	.ascii "Register option selected."
        65 72 20 6F 70 74
        69 6F 6E 20 73 65
        6C 65 63 74 65 64
        2E
   04E7 00                 2938 	.db 0x00
                           2939 	.area XINIT   (CODE)
   0000                    2940 __xinit__Reg_Define:
   0000 52 65 67 69 73 74  2941 	.ascii "Register option selected."
        65 72 20 6F 70 74
        69 6F 6E 20 73 65
        6C 65 63 74 65 64
        2E
   0019 00                 2942 	.db 0x00
                           2943 	.area CABS    (ABS,CODE)
